(imatplotlib.font_manager
FontManager
p1
(dp2
S'afm_lookup_cache'
p3
(dp4
sS'ttflist'
p5
(lp6
ccopy_reg
_reconstructor
p7
(cmatplotlib.font_manager
FontEntry
p8
c__builtin__
object
p9
NtRp10
(dp11
S'style'
p12
S'normal'
p13
sS'name'
p14
S'cmb10'
p15
sS'weight'
p16
I400
sS'stretch'
p17
g13
sS'variant'
p18
g13
sS'fname'
p19
S'/usr/local/bin/homebrew/Cellar/python/2.7.6/Frameworks/Python.framework/Versions/2.7/lib/python2.7/site-packages/matplotlib/mpl-data/fonts/ttf/cmb10.ttf'
p20
sS'size'
p21
S'scalable'
p22
sbag7
(g8
g9
NtRp23
(dp24
g12
g13
sg14
S'cmmi10'
p25
sg16
I400
sg17
g13
sg18
g13
sg19
S'/usr/local/bin/homebrew/Cellar/python/2.7.6/Frameworks/Python.framework/Versions/2.7/lib/python2.7/site-packages/matplotlib/mpl-data/fonts/ttf/cmmi10.ttf'
p26
sg21
g22
sbag7
(g8
g9
NtRp27
(dp28
g12
g13
sg14
S'STIXSizeOneSym'
p29
sg16
I700
sg17
g13
sg18
g13
sg19
S'/usr/local/bin/homebrew/Cellar/python/2.7.6/Frameworks/Python.framework/Versions/2.7/lib/python2.7/site-packages/matplotlib/mpl-data/fonts/ttf/STIXSizOneSymBol.ttf'
p30
sg21
g22
sbag7
(g8
g9
NtRp31
(dp32
g12
g13
sg14
S'STIXNonUnicode'
p33
sg16
I400
sg17
g13
sg18
g13
sg19
S'/usr/local/bin/homebrew/Cellar/python/2.7.6/Frameworks/Python.framework/Versions/2.7/lib/python2.7/site-packages/matplotlib/mpl-data/fonts/ttf/STIXNonUni.ttf'
p34
sg21
g22
sbag7
(g8
g9
NtRp35
(dp36
g12
g13
sg14
S'cmss10'
p37
sg16
I400
sg17
g13
sg18
g13
sg19
S'/usr/local/bin/homebrew/Cellar/python/2.7.6/Frameworks/Python.framework/Versions/2.7/lib/python2.7/site-packages/matplotlib/mpl-data/fonts/ttf/cmss10.ttf'
p38
sg21
g22
sbag7
(g8
g9
NtRp39
(dp40
g12
g13
sg14
S'Bitstream Vera Sans Mono'
p41
sg16
I400
sg17
g13
sg18
g13
sg19
S'/usr/local/bin/homebrew/Cellar/python/2.7.6/Frameworks/Python.framework/Versions/2.7/lib/python2.7/site-packages/matplotlib/mpl-data/fonts/ttf/VeraMono.ttf'
p42
sg21
g22
sbag7
(g8
g9
NtRp43
(dp44
g12
g13
sg14
S'STIXSizeThreeSym'
p45
sg16
I400
sg17
g13
sg18
g13
sg19
S'/usr/local/bin/homebrew/Cellar/python/2.7.6/Frameworks/Python.framework/Versions/2.7/lib/python2.7/site-packages/matplotlib/mpl-data/fonts/ttf/STIXSizThreeSymReg.ttf'
p46
sg21
g22
sbag7
(g8
g9
NtRp47
(dp48
g12
g13
sg14
S'cmex10'
p49
sg16
I400
sg17
g13
sg18
g13
sg19
S'/usr/local/bin/homebrew/Cellar/python/2.7.6/Frameworks/Python.framework/Versions/2.7/lib/python2.7/site-packages/matplotlib/mpl-data/fonts/ttf/cmex10.ttf'
p50
sg21
g22
sbag7
(g8
g9
NtRp51
(dp52
g12
g13
sg14
S'cmsy10'
p53
sg16
I400
sg17
g13
sg18
g13
sg19
S'/usr/local/bin/homebrew/Cellar/python/2.7.6/Frameworks/Python.framework/Versions/2.7/lib/python2.7/site-packages/matplotlib/mpl-data/fonts/ttf/cmsy10.ttf'
p54
sg21
g22
sbag7
(g8
g9
NtRp55
(dp56
g12
g13
sg14
S'STIXSizeFiveSym'
p57
sg16
I400
sg17
g13
sg18
g13
sg19
S'/usr/local/bin/homebrew/Cellar/python/2.7.6/Frameworks/Python.framework/Versions/2.7/lib/python2.7/site-packages/matplotlib/mpl-data/fonts/ttf/STIXSizFiveSymReg.ttf'
p58
sg21
g22
sbag7
(g8
g9
NtRp59
(dp60
g12
g13
sg14
S'cmr10'
p61
sg16
I400
sg17
g13
sg18
g13
sg19
S'/usr/local/bin/homebrew/Cellar/python/2.7.6/Frameworks/Python.framework/Versions/2.7/lib/python2.7/site-packages/matplotlib/mpl-data/fonts/ttf/cmr10.ttf'
p62
sg21
g22
sbag7
(g8
g9
NtRp63
(dp64
g12
g13
sg14
S'Bitstream Vera Serif'
p65
sg16
I400
sg17
g13
sg18
g13
sg19
S'/usr/local/bin/homebrew/Cellar/python/2.7.6/Frameworks/Python.framework/Versions/2.7/lib/python2.7/site-packages/matplotlib/mpl-data/fonts/ttf/VeraSe.ttf'
p66
sg21
g22
sbag7
(g8
g9
NtRp67
(dp68
g12
g13
sg14
S'STIXSizeFourSym'
p69
sg16
I400
sg17
g13
sg18
g13
sg19
S'/usr/local/bin/homebrew/Cellar/python/2.7.6/Frameworks/Python.framework/Versions/2.7/lib/python2.7/site-packages/matplotlib/mpl-data/fonts/ttf/STIXSizFourSymReg.ttf'
p70
sg21
g22
sbag7
(g8
g9
NtRp71
(dp72
g12
g13
sg14
S'cmtt10'
p73
sg16
I400
sg17
g13
sg18
g13
sg19
S'/usr/local/bin/homebrew/Cellar/python/2.7.6/Frameworks/Python.framework/Versions/2.7/lib/python2.7/site-packages/matplotlib/mpl-data/fonts/ttf/cmtt10.ttf'
p74
sg21
g22
sbag7
(g8
g9
NtRp75
(dp76
g12
g13
sg14
S'STIXSizeTwoSym'
p77
sg16
I400
sg17
g13
sg18
g13
sg19
S'/usr/local/bin/homebrew/Cellar/python/2.7.6/Frameworks/Python.framework/Versions/2.7/lib/python2.7/site-packages/matplotlib/mpl-data/fonts/ttf/STIXSizTwoSymReg.ttf'
p78
sg21
g22
sbag7
(g8
g9
NtRp79
(dp80
g12
S'oblique'
p81
sg14
S'Bitstream Vera Sans'
p82
sg16
I700
sg17
g13
sg18
g13
sg19
S'/usr/local/bin/homebrew/Cellar/python/2.7.6/Frameworks/Python.framework/Versions/2.7/lib/python2.7/site-packages/matplotlib/mpl-data/fonts/ttf/VeraBI.ttf'
p83
sg21
g22
sbag7
(g8
g9
NtRp84
(dp85
g12
g13
sg14
S'STIXSizeFourSym'
p86
sg16
I700
sg17
g13
sg18
g13
sg19
S'/usr/local/bin/homebrew/Cellar/python/2.7.6/Frameworks/Python.framework/Versions/2.7/lib/python2.7/site-packages/matplotlib/mpl-data/fonts/ttf/STIXSizFourSymBol.ttf'
p87
sg21
g22
sbag7
(g8
g9
NtRp88
(dp89
g12
g81
sg14
S'Bitstream Vera Sans'
p90
sg16
I400
sg17
g13
sg18
g13
sg19
S'/usr/local/bin/homebrew/Cellar/python/2.7.6/Frameworks/Python.framework/Versions/2.7/lib/python2.7/site-packages/matplotlib/mpl-data/fonts/ttf/VeraIt.ttf'
p91
sg21
g22
sbag7
(g8
g9
NtRp92
(dp93
g12
S'italic'
p94
sg14
S'STIXGeneral'
p95
sg16
I700
sg17
g13
sg18
g13
sg19
S'/usr/local/bin/homebrew/Cellar/python/2.7.6/Frameworks/Python.framework/Versions/2.7/lib/python2.7/site-packages/matplotlib/mpl-data/fonts/ttf/STIXGeneralBolIta.ttf'
p96
sg21
g22
sbag7
(g8
g9
NtRp97
(dp98
g12
g13
sg14
S'STIXGeneral'
p99
sg16
I400
sg17
g13
sg18
g13
sg19
S'/usr/local/bin/homebrew/Cellar/python/2.7.6/Frameworks/Python.framework/Versions/2.7/lib/python2.7/site-packages/matplotlib/mpl-data/fonts/ttf/STIXGeneral.ttf'
p100
sg21
g22
sbag7
(g8
g9
NtRp101
(dp102
g12
g94
sg14
S'STIXNonUnicode'
p103
sg16
I400
sg17
g13
sg18
g13
sg19
S'/usr/local/bin/homebrew/Cellar/python/2.7.6/Frameworks/Python.framework/Versions/2.7/lib/python2.7/site-packages/matplotlib/mpl-data/fonts/ttf/STIXNonUniIta.ttf'
p104
sg21
g22
sbag7
(g8
g9
NtRp105
(dp106
g12
g13
sg14
S'STIXGeneral'
p107
sg16
I700
sg17
g13
sg18
g13
sg19
S'/usr/local/bin/homebrew/Cellar/python/2.7.6/Frameworks/Python.framework/Versions/2.7/lib/python2.7/site-packages/matplotlib/mpl-data/fonts/ttf/STIXGeneralBol.ttf'
p108
sg21
g22
sbag7
(g8
g9
NtRp109
(dp110
g12
g13
sg14
S'STIXSizeTwoSym'
p111
sg16
I700
sg17
g13
sg18
g13
sg19
S'/usr/local/bin/homebrew/Cellar/python/2.7.6/Frameworks/Python.framework/Versions/2.7/lib/python2.7/site-packages/matplotlib/mpl-data/fonts/ttf/STIXSizTwoSymBol.ttf'
p112
sg21
g22
sbag7
(g8
g9
NtRp113
(dp114
g12
g13
sg14
S'STIXNonUnicode'
p115
sg16
I700
sg17
g13
sg18
g13
sg19
S'/usr/local/bin/homebrew/Cellar/python/2.7.6/Frameworks/Python.framework/Versions/2.7/lib/python2.7/site-packages/matplotlib/mpl-data/fonts/ttf/STIXNonUniBol.ttf'
p116
sg21
g22
sbag7
(g8
g9
NtRp117
(dp118
g12
g13
sg14
S'STIXSizeThreeSym'
p119
sg16
I700
sg17
g13
sg18
g13
sg19
S'/usr/local/bin/homebrew/Cellar/python/2.7.6/Frameworks/Python.framework/Versions/2.7/lib/python2.7/site-packages/matplotlib/mpl-data/fonts/ttf/STIXSizThreeSymBol.ttf'
p120
sg21
g22
sbag7
(g8
g9
NtRp121
(dp122
g12
g13
sg14
S'Bitstream Vera Sans Mono'
p123
sg16
I700
sg17
g13
sg18
g13
sg19
S'/usr/local/bin/homebrew/Cellar/python/2.7.6/Frameworks/Python.framework/Versions/2.7/lib/python2.7/site-packages/matplotlib/mpl-data/fonts/ttf/VeraMoBd.ttf'
p124
sg21
g22
sbag7
(g8
g9
NtRp125
(dp126
g12
g81
sg14
S'Bitstream Vera Sans Mono'
p127
sg16
I400
sg17
g13
sg18
g13
sg19
S'/usr/local/bin/homebrew/Cellar/python/2.7.6/Frameworks/Python.framework/Versions/2.7/lib/python2.7/site-packages/matplotlib/mpl-data/fonts/ttf/VeraMoIt.ttf'
p128
sg21
g22
sbag7
(g8
g9
NtRp129
(dp130
g12
g81
sg14
S'Bitstream Vera Sans Mono'
p131
sg16
I700
sg17
g13
sg18
g13
sg19
S'/usr/local/bin/homebrew/Cellar/python/2.7.6/Frameworks/Python.framework/Versions/2.7/lib/python2.7/site-packages/matplotlib/mpl-data/fonts/ttf/VeraMoBI.ttf'
p132
sg21
g22
sbag7
(g8
g9
NtRp133
(dp134
g12
g94
sg14
S'STIXNonUnicode'
p135
sg16
I700
sg17
g13
sg18
g13
sg19
S'/usr/local/bin/homebrew/Cellar/python/2.7.6/Frameworks/Python.framework/Versions/2.7/lib/python2.7/site-packages/matplotlib/mpl-data/fonts/ttf/STIXNonUniBolIta.ttf'
p136
sg21
g22
sbag7
(g8
g9
NtRp137
(dp138
g12
g94
sg14
S'STIXGeneral'
p139
sg16
I400
sg17
g13
sg18
g13
sg19
S'/usr/local/bin/homebrew/Cellar/python/2.7.6/Frameworks/Python.framework/Versions/2.7/lib/python2.7/site-packages/matplotlib/mpl-data/fonts/ttf/STIXGeneralItalic.ttf'
p140
sg21
g22
sbag7
(g8
g9
NtRp141
(dp142
g12
g13
sg14
S'Bitstream Vera Sans'
p143
sg16
I700
sg17
g13
sg18
g13
sg19
S'/usr/local/bin/homebrew/Cellar/python/2.7.6/Frameworks/Python.framework/Versions/2.7/lib/python2.7/site-packages/matplotlib/mpl-data/fonts/ttf/VeraBd.ttf'
p144
sg21
g22
sbag7
(g8
g9
NtRp145
(dp146
g12
g13
sg14
S'STIXSizeOneSym'
p147
sg16
I400
sg17
g13
sg18
g13
sg19
S'/usr/local/bin/homebrew/Cellar/python/2.7.6/Frameworks/Python.framework/Versions/2.7/lib/python2.7/site-packages/matplotlib/mpl-data/fonts/ttf/STIXSizOneSymReg.ttf'
p148
sg21
g22
sbag7
(g8
g9
NtRp149
(dp150
g12
g13
sg14
S'Bitstream Vera Sans'
p151
sg16
I400
sg17
g13
sg18
g13
sg19
S'/usr/local/bin/homebrew/Cellar/python/2.7.6/Frameworks/Python.framework/Versions/2.7/lib/python2.7/site-packages/matplotlib/mpl-data/fonts/ttf/Vera.ttf'
p152
sg21
g22
sbag7
(g8
g9
NtRp153
(dp154
g12
g13
sg14
S'Bitstream Vera Serif'
p155
sg16
I700
sg17
g13
sg18
g13
sg19
S'/usr/local/bin/homebrew/Cellar/python/2.7.6/Frameworks/Python.framework/Versions/2.7/lib/python2.7/site-packages/matplotlib/mpl-data/fonts/ttf/VeraSeBd.ttf'
p156
sg21
g22
sbag7
(g8
g9
NtRp157
(dp158
g12
g94
sg14
S'Trebuchet MS'
p159
sg16
I400
sg17
g13
sg18
g13
sg19
S'/Library/Fonts/Trebuchet MS Italic.ttf'
p160
sg21
g22
sbag7
(g8
g9
NtRp161
(dp162
g12
g13
sg14
S'Mshtakan'
p163
sg16
I400
sg17
g13
sg18
g13
sg19
S'/Library/Fonts/MshtakanRegular.ttf'
p164
sg21
g22
sbag7
(g8
g9
NtRp165
(dp166
g12
g94
sg14
S'Myriad Pro'
p167
sg16
I400
sg17
S'condensed'
p168
sg18
g13
sg19
S'/Library/Fonts/MyriadPro-CondIt.otf'
p169
sg21
g22
sbag7
(g8
g9
NtRp170
(dp171
g12
g13
sg14
S'Serto Urhoy'
p172
sg16
I400
sg17
g13
sg18
g13
sg19
S'/usr/X11/lib/X11/fonts/OTF/SyrCOMUrhoy.otf'
p173
sg21
g22
sbag7
(g8
g9
NtRp174
(dp175
g12
g13
sg14
S'Poplar Std'
p176
sg16
I900
sg17
g13
sg18
g13
sg19
S'/Library/Fonts/PoplarStd.otf'
p177
sg21
g22
sbag7
(g8
g9
NtRp178
(dp179
g12
g13
sg14
S'Arno Pro'
p180
sg16
I700
sg17
g13
sg18
g13
sg19
S'/Library/Fonts/ArnoPro-SmbdSubhead.otf'
p181
sg21
g22
sbag7
(g8
g9
NtRp182
(dp183
g12
g13
sg14
S'Kozuka Gothic Pr6N'
p184
sg16
I700
sg17
g13
sg18
g13
sg19
S'/Library/Fonts/KozGoPr6N-Heavy.otf'
p185
sg21
g22
sbag7
(g8
g9
NtRp186
(dp187
g12
g94
sg14
S'Arno Pro'
p188
sg16
I700
sg17
g13
sg18
g13
sg19
S'/Library/Fonts/ArnoPro-SmbdItalicSubhead.otf'
p189
sg21
g22
sbag7
(g8
g9
NtRp190
(dp191
g12
g94
sg14
S'Gill Sans MT'
p192
sg16
I400
sg17
g13
sg18
g13
sg19
S'/Library/Fonts/Microsoft/Gill Sans MT Italic.ttf'
p193
sg21
g22
sbag7
(g8
g9
NtRp194
(dp195
g12
g13
sg14
S'Times New Roman'
p196
sg16
I500
sg17
g13
sg18
g13
sg19
S'/Library/Fonts/Times New Roman.ttf'
p197
sg21
g22
sbag7
(g8
g9
NtRp198
(dp199
g12
g13
sg14
S'AppleMyungjo'
p200
sg16
I400
sg17
g13
sg18
g13
sg19
S'/Library/Fonts/AppleMyungjo.ttf'
p201
sg21
g22
sbag7
(g8
g9
NtRp202
(dp203
g12
g94
sg14
S'Arno Pro'
p204
sg16
I700
sg17
g13
sg18
g13
sg19
S'/Library/Fonts/ArnoPro-BoldItalic.otf'
p205
sg21
g22
sbag7
(g8
g9
NtRp206
(dp207
g12
g13
sg14
S'Osaka'
p208
sg16
I400
sg17
g13
sg18
g13
sg19
S'/Library/Fonts/Osaka.ttf'
p209
sg21
g22
sbag7
(g8
g9
NtRp210
(dp211
g12
g13
sg14
S'STIXSizeThreeSym'
p212
sg16
I700
sg17
g13
sg18
g13
sg19
S'/Library/Fonts/STIXSizThreeSymBol.otf'
p213
sg21
g22
sbag7
(g8
g9
NtRp214
(dp215
g12
g13
sg14
S'Symbol'
p216
sg16
I400
sg17
g13
sg18
g13
sg19
S'/System/Library/Fonts/Symbol.ttf'
p217
sg21
g22
sbag7
(g8
g9
NtRp218
(dp219
g12
g13
sg14
S'East Syriac Ctesiphon'
p220
sg16
I400
sg17
g13
sg18
g13
sg19
S'/usr/X11/lib/X11/fonts/OTF/SyrCOMCtesiphon.otf'
p221
sg21
g22
sbag7
(g8
g9
NtRp222
(dp223
g12
g13
sg14
S'Bell Gothic Std'
p224
sg16
I900
sg17
g13
sg18
g13
sg19
S'/Library/Fonts/BellGothicStd-Black.otf'
p225
sg21
g22
sbag7
(g8
g9
NtRp226
(dp227
g12
g13
sg14
S'Al Bayan'
p228
sg16
I400
sg17
g13
sg18
g13
sg19
S'/Library/Fonts/AlBayan.ttf'
p229
sg21
g22
sbag7
(g8
g9
NtRp230
(dp231
g12
g13
sg14
S'Candara'
p232
sg16
I700
sg17
g13
sg18
g13
sg19
S'/Library/Fonts/Microsoft/Candara Bold.ttf'
p233
sg21
g22
sbag7
(g8
g9
NtRp234
(dp235
g12
g13
sg14
S'Tw Cen MT'
p236
sg16
I400
sg17
g13
sg18
g13
sg19
S'/Library/Fonts/Microsoft/Tw Cen MT.ttf'
p237
sg21
g22
sbag7
(g8
g9
NtRp238
(dp239
g12
g94
sg14
S'Myriad Pro'
p240
sg16
I400
sg17
g13
sg18
g13
sg19
S'/Library/Fonts/MyriadPro-It.otf'
p241
sg21
g22
sbag7
(g8
g9
NtRp242
(dp243
g12
g13
sg14
S'Luxi Serif'
p244
sg16
I700
sg17
g13
sg18
g13
sg19
S'/usr/X11R6/lib/X11/fonts/TTF/luxirb.ttf'
p245
sg21
g22
sbag7
(g8
g9
NtRp246
(dp247
g12
g13
sg14
S'Corbel'
p248
sg16
I700
sg17
g13
sg18
g13
sg19
S'/Library/Fonts/Microsoft/Corbel Bold.ttf'
p249
sg21
g22
sbag7
(g8
g9
NtRp250
(dp251
g12
g94
sg14
S'Arno Pro'
p252
sg16
I400
sg17
g13
sg18
g13
sg19
S'/Library/Fonts/ArnoPro-ItalicSmText.otf'
p253
sg21
g22
sbag7
(g8
g9
NtRp254
(dp255
g12
g13
sg14
S'Nadeem'
p256
sg16
I400
sg17
g13
sg18
g13
sg19
S'/Library/Fonts/Nadeem.ttf'
p257
sg21
g22
sbag7
(g8
g9
NtRp258
(dp259
g12
g13
sg14
S'Al Bayan'
p260
sg16
I700
sg17
g13
sg18
g13
sg19
S'/Library/Fonts/AlBayanBold.ttf'
p261
sg21
g22
sbag7
(g8
g9
NtRp262
(dp263
g12
g13
sg14
S'Kozuka Gothic Pr6N'
p264
sg16
I400
sg17
g13
sg18
g13
sg19
S'/Library/Fonts/KozGoPr6N-Regular.otf'
p265
sg21
g22
sbag7
(g8
g9
NtRp266
(dp267
g12
g94
sg14
S'Arial'
p268
sg16
I700
sg17
g13
sg18
g13
sg19
S'/Library/Fonts/Arial Bold Italic.ttf'
p269
sg21
g22
sbag7
(g8
g9
NtRp270
(dp271
g12
g13
sg14
S'Tekton Pro'
p272
sg16
I700
sg17
g13
sg18
g13
sg19
S'/Library/Fonts/TektonPro-Bold.otf'
p273
sg21
g22
sbag7
(g8
g9
NtRp274
(dp275
g12
g13
sg14
S'Serto Batnan'
p276
sg16
I400
sg17
g13
sg18
g13
sg19
S'/usr/X11/lib/X11/fonts/OTF/SyrCOMBatnan.otf'
p277
sg21
g22
sbag7
(g8
g9
NtRp278
(dp279
g12
g13
sg14
S'Mshtakan'
p280
sg16
I700
sg17
g13
sg18
g13
sg19
S'/Library/Fonts/MshtakanBold.ttf'
p281
sg21
g22
sbag7
(g8
g9
NtRp282
(dp283
g12
g13
sg14
S'Arno Pro'
p284
sg16
I400
sg17
g13
sg18
g13
sg19
S'/Library/Fonts/ArnoPro-Caption.otf'
p285
sg21
g22
sbag7
(g8
g9
NtRp286
(dp287
g12
g13
sg14
S'Calibri'
p288
sg16
I200
sg17
g13
sg18
g13
sg19
S'/Library/Fonts/Microsoft/Calibril.ttf'
p289
sg21
g22
sbag7
(g8
g9
NtRp290
(dp291
g12
g13
sg14
S'Letter Gothic Std'
p292
sg16
I500
sg17
g13
sg18
g13
sg19
S'/Library/Fonts/LetterGothicStd.otf'
p293
sg21
g22
sbag7
(g8
g9
NtRp294
(dp295
g12
g13
sg14
S'STIXSizeFiveSym'
p296
sg16
I400
sg17
g13
sg18
g13
sg19
S'/Library/Fonts/STIXSizFiveSymReg.otf'
p297
sg21
g22
sbag7
(g8
g9
NtRp298
(dp299
g12
g13
sg14
S'Serto Urhoy'
p300
sg16
I700
sg17
g13
sg18
g13
sg19
S'/usr/X11/lib/X11/fonts/OTF/SyrCOMUrhoyBold.otf'
p301
sg21
g22
sbag7
(g8
g9
NtRp302
(dp303
g12
g13
sg14
S'Gurmukhi MT'
p304
sg16
I400
sg17
g13
sg18
g13
sg19
S'/Library/Fonts/Gurmukhi.ttf'
p305
sg21
g22
sbag7
(g8
g9
NtRp306
(dp307
g12
g13
sg14
S'YuGothic'
p308
sg16
I700
sg17
g13
sg18
g13
sg19
S'/Library/Fonts/Yu Gothic Bold.otf'
p309
sg21
g22
sbag7
(g8
g9
NtRp310
(dp311
g12
g94
sg14
S'Cambria'
p312
sg16
I400
sg17
g13
sg18
g13
sg19
S'/Library/Fonts/Microsoft/Cambria Italic.ttf'
p313
sg21
g22
sbag7
(g8
g9
NtRp314
(dp315
g12
g81
sg14
S'Tekton Pro'
p316
sg16
I700
sg17
g13
sg18
g13
sg19
S'/Library/Fonts/TektonPro-BoldObl.otf'
p317
sg21
g22
sbag7
(g8
g9
NtRp318
(dp319
g12
g13
sg14
S'East Syriac Adiabene'
p320
sg16
I400
sg17
g13
sg18
g13
sg19
S'/usr/X11/lib/X11/fonts/OTF/SyrCOMAdiabene.otf'
p321
sg21
g22
sbag7
(g8
g9
NtRp322
(dp323
g12
g13
sg14
S'Adobe Myungjo Std'
p324
sg16
I400
sg17
g13
sg18
g13
sg19
S'/Library/Fonts/AdobeMyungjoStd-Medium.otf'
p325
sg21
g22
sbag7
(g8
g9
NtRp326
(dp327
g12
g13
sg14
S'Hiragino Maru Gothic Pro'
p328
sg16
I400
sg17
g13
sg18
g13
sg19
S'/Library/Fonts/\xe3\x83\x92\xe3\x83\xa9\xe3\x82\xad\xe3\x82\x99\xe3\x83\x8e\xe4\xb8\xb8\xe3\x82\xb3\xe3\x82\x99 Pro W4.otf'
p329
sg21
g22
sbag7
(g8
g9
NtRp330
(dp331
g12
g94
sg14
S'Perpetua'
p332
sg16
I700
sg17
g13
sg18
g13
sg19
S'/Library/Fonts/Microsoft/Perpetua Bold Italic.ttf'
p333
sg21
g22
sbag7
(g8
g9
NtRp334
(dp335
g12
g13
sg14
S'Adobe Gothic Std'
p336
sg16
I700
sg17
g13
sg18
g13
sg19
S'/Library/Fonts/AdobeGothicStd-Bold.otf'
p337
sg21
g22
sbag7
(g8
g9
NtRp338
(dp339
g12
g13
sg14
S'Estrangelo Talada'
p340
sg16
I400
sg17
g13
sg18
g13
sg19
S'/usr/X11/lib/X11/fonts/OTF/SyrCOMTalada.otf'
p341
sg21
g22
sbag7
(g8
g9
NtRp342
(dp343
g12
g13
sg14
S'Verdana'
p344
sg16
I700
sg17
g13
sg18
g13
sg19
S'/Library/Fonts/Microsoft/Verdana Bold.ttf'
p345
sg21
g22
sbag7
(g8
g9
NtRp346
(dp347
g12
g13
sg14
S'Myriad Pro'
p348
sg16
I700
sg17
g13
sg18
g13
sg19
S'/Library/Fonts/MyriadPro-Semibold.otf'
p349
sg21
g22
sbag7
(g8
g9
NtRp350
(dp351
g12
g94
sg14
S'Arno Pro'
p352
sg16
I700
sg17
g13
sg18
g13
sg19
S'/Library/Fonts/ArnoPro-BoldItalicSmText.otf'
p353
sg21
g22
sbag7
(g8
g9
NtRp354
(dp355
g12
g13
sg14
S'Verdana'
p356
sg16
I400
sg17
g13
sg18
g13
sg19
S'/Library/Fonts/Microsoft/Verdana.ttf'
p357
sg21
g22
sbag7
(g8
g9
NtRp358
(dp359
g12
g13
sg14
S'Khmer Sangam MN'
p360
sg16
I400
sg17
g13
sg18
g13
sg19
S'/Library/Fonts/Khmer Sangam MN.ttf'
p361
sg21
g22
sbag7
(g8
g9
NtRp362
(dp363
g12
g13
sg14
S'PCMyungjo'
p364
sg16
I400
sg17
g13
sg18
g13
sg19
S'/Library/Fonts/PCmyoungjo.ttf'
p365
sg21
g22
sbag7
(g8
g9
NtRp366
(dp367
g12
g13
sg14
S'MingLiU_HKSCS'
p368
sg16
I400
sg17
g13
sg18
g13
sg19
S'/Library/Fonts/Microsoft/mingliu_hkscs.ttf'
p369
sg21
g22
sbag7
(g8
g9
NtRp370
(dp371
g12
g13
sg14
S'Kozuka Mincho Pr6N'
p372
sg16
I700
sg17
g13
sg18
g13
sg19
S'/Library/Fonts/KozMinPr6N-Bold.otf'
p373
sg21
g22
sbag7
(g8
g9
NtRp374
(dp375
g12
g94
sg14
S'Verdana'
p376
sg16
I700
sg17
g13
sg18
g13
sg19
S'/Library/Fonts/Verdana Bold Italic.ttf'
p377
sg21
g22
sbag7
(g8
g9
NtRp378
(dp379
g12
g13
sg14
S'Estrangelo Quenneshrin'
p380
sg16
I400
sg17
g13
sg18
g13
sg19
S'/usr/X11/lib/X11/fonts/OTF/SyrCOMQenNeshrin.otf'
p381
sg21
g22
sbag7
(g8
g9
NtRp382
(dp383
g12
g13
sg14
S'Serto Malankara'
p384
sg16
I400
sg17
g13
sg18
g13
sg19
S'/usr/X11/lib/X11/fonts/OTF/SyrCOMMalankara.otf'
p385
sg21
g22
sbag7
(g8
g9
NtRp386
(dp387
g12
g13
sg14
S'Estrangelo Edessa'
p388
sg16
I400
sg17
g13
sg18
g13
sg19
S'/usr/X11/lib/X11/fonts/OTF/SyrCOMEdessa.otf'
p389
sg21
g22
sbag7
(g8
g9
NtRp390
(dp391
g12
g13
sg14
S'Kokonor'
p392
sg16
I400
sg17
g13
sg18
g13
sg19
S'/Library/Fonts/Kokonor.ttf'
p393
sg21
g22
sbag7
(g8
g9
NtRp394
(dp395
g12
g13
sg14
S'Goha-Tibeb Zemen'
p396
sg16
I400
sg17
g13
sg18
g13
sg19
S'/usr/X11/lib/X11/fonts/OTF/GohaTibebZemen.otf'
p397
sg21
g22
sbag7
(g8
g9
NtRp398
(dp399
g12
g13
sg14
S'Apple Braille'
p400
sg16
I400
sg17
g13
sg18
g13
sg19
S'/System/Library/Fonts/Apple Braille.ttf'
p401
sg21
g22
sbag7
(g8
g9
NtRp402
(dp403
g12
g13
sg14
S'Hiragino Mincho Pro'
p404
sg16
I700
sg17
g13
sg18
g13
sg19
S'/Library/Fonts/\xe3\x83\x92\xe3\x83\xa9\xe3\x82\xad\xe3\x82\x99\xe3\x83\x8e\xe6\x98\x8e\xe6\x9c\x9d Pro W6.otf'
p405
sg21
g22
sbag7
(g8
g9
NtRp406
(dp407
g12
g13
sg14
S'Kailasa'
p408
sg16
I400
sg17
g13
sg18
g13
sg19
S'/Library/Fonts/Kailasa.ttf'
p409
sg21
g22
sbag7
(g8
g9
NtRp410
(dp411
g12
g94
sg14
S'Arno Pro'
p412
sg16
I700
sg17
g13
sg18
g13
sg19
S'/Library/Fonts/ArnoPro-SmbdItalicSmText.otf'
p413
sg21
g22
sbag7
(g8
g9
NtRp414
(dp415
g12
g94
sg14
S'STIXNonUnicode'
p416
sg16
I400
sg17
g13
sg18
g13
sg19
S'/Library/Fonts/STIXNonUniIta.otf'
p417
sg21
g22
sbag7
(g8
g9
NtRp418
(dp419
g12
g13
sg14
S'Baghdad'
p420
sg16
I400
sg17
g13
sg18
g13
sg19
S'/Library/Fonts/Baghdad.ttf'
p421
sg21
g22
sbag7
(g8
g9
NtRp422
(dp423
g12
g13
sg14
S'Tekton Pro'
p424
sg16
I700
sg17
g13
sg18
g13
sg19
S'/Library/Fonts/TektonPro-BoldExt.otf'
p425
sg21
g22
sbag7
(g8
g9
NtRp426
(dp427
g12
g94
sg14
S'Chaparral Pro'
p428
sg16
I400
sg17
g13
sg18
g13
sg19
S'/Library/Fonts/ChaparralPro-Italic.otf'
p429
sg21
g22
sbag7
(g8
g9
NtRp430
(dp431
g12
g13
sg14
S'Comic Sans MS'
p432
sg16
I700
sg17
g13
sg18
g13
sg19
S'/Library/Fonts/Comic Sans MS Bold.ttf'
p433
sg21
g22
sbag7
(g8
g9
NtRp434
(dp435
g12
g13
sg14
S'Arno Pro'
p436
sg16
I400
sg17
g13
sg18
g13
sg19
S'/Library/Fonts/ArnoPro-SmText.otf'
p437
sg21
g22
sbag7
(g8
g9
NtRp438
(dp439
g12
g13
sg14
S'Arno Pro'
p440
sg16
I700
sg17
g13
sg18
g13
sg19
S'/Library/Fonts/ArnoPro-SmbdSmText.otf'
p441
sg21
g22
sbag7
(g8
g9
NtRp442
(dp443
g12
g13
sg14
S'Luxi Sans'
p444
sg16
I400
sg17
g13
sg18
g13
sg19
S'/usr/X11/lib/X11/fonts/TTF/luxisr.ttf'
p445
sg21
g22
sbag7
(g8
g9
NtRp446
(dp447
g12
g94
sg14
S'Adobe Garamond Pro'
p448
sg16
I700
sg17
g13
sg18
g13
sg19
S'/Library/Fonts/AGaramondPro-BoldItalic.otf'
p449
sg21
g22
sbag7
(g8
g9
NtRp450
(dp451
g12
g13
sg14
S'Apple SD Gothic Neo'
p452
sg16
I700
sg17
g13
sg18
g13
sg19
S'/Library/Fonts/AppleSDGothicNeo-SemiBold.otf'
p453
sg21
g22
sbag7
(g8
g9
NtRp454
(dp455
g12
g13
sg14
S'STIXNonUnicode'
p456
sg16
I700
sg17
g13
sg18
g13
sg19
S'/Library/Fonts/STIXNonUniBol.otf'
p457
sg21
g22
sbag7
(g8
g9
NtRp458
(dp459
g12
g13
sg14
S'Webdings'
p460
sg16
I400
sg17
g13
sg18
g13
sg19
S'/Library/Fonts/Webdings.ttf'
p461
sg21
g22
sbag7
(g8
g9
NtRp462
(dp463
g12
g13
sg14
S'Apple Braille'
p464
sg16
I400
sg17
g13
sg18
g13
sg19
S'/System/Library/Fonts/Apple Braille Pinpoint 6 Dot.ttf'
p465
sg21
g22
sbag7
(g8
g9
NtRp466
(dp467
g12
g13
sg14
S'Kozuka Mincho Pr6N'
p468
sg16
I700
sg17
g13
sg18
g13
sg19
S'/Library/Fonts/KozMinPr6N-Heavy.otf'
p469
sg21
g22
sbag7
(g8
g9
NtRp470
(dp471
g12
g13
sg14
S'MingLiU_HKSCS-ExtB'
p472
sg16
I400
sg17
g13
sg18
g13
sg19
S'/Library/Fonts/Microsoft/MingLiU_HKSCS-ExtB.ttf'
p473
sg21
g22
sbag7
(g8
g9
NtRp474
(dp475
g12
g13
sg14
S'Kozuka Gothic Pro'
p476
sg16
I700
sg17
g13
sg18
g13
sg19
S'/Library/Fonts/KozGoPro-Heavy.otf'
p477
sg21
g22
sbag7
(g8
g9
NtRp478
(dp479
g12
g94
sg14
S'Franklin Gothic Book'
p480
sg16
I400
sg17
g13
sg18
g13
sg19
S'/Library/Fonts/Microsoft/Franklin Gothic Book Italic.ttf'
p481
sg21
g22
sbag7
(g8
g9
NtRp482
(dp483
g12
g94
sg14
S'Arno Pro'
p484
sg16
I700
sg17
g13
sg18
g13
sg19
S'/Library/Fonts/ArnoPro-SmbdItalic.otf'
p485
sg21
g22
sbag7
(g8
g9
NtRp486
(dp487
g12
g94
sg14
S'Palatino Linotype'
p488
sg16
I700
sg17
g13
sg18
g13
sg19
S'/Library/Fonts/Microsoft/Palatino Linotype Bold Italic.ttf'
p489
sg21
g22
sbag7
(g8
g9
NtRp490
(dp491
g12
g13
sg14
S'STIXIntegralsUpSm'
p492
sg16
I400
sg17
g13
sg18
g13
sg19
S'/Library/Fonts/STIXIntUpSmReg.otf'
p493
sg21
g22
sbag7
(g8
g9
NtRp494
(dp495
g12
g13
sg14
S'Meiryo'
p496
sg16
I400
sg17
g13
sg18
g13
sg19
S'/Library/Fonts/Microsoft/Meiryo.ttf'
p497
sg21
g22
sbag7
(g8
g9
NtRp498
(dp499
g12
g94
sg14
S'Minion Pro'
p500
sg16
I500
sg17
g13
sg18
g13
sg19
S'/Library/Fonts/MinionPro-MediumIt.otf'
p501
sg21
g22
sbag7
(g8
g9
NtRp502
(dp503
g12
g13
sg14
S'Kozuka Mincho Pro'
p504
sg16
I400
sg17
g13
sg18
g13
sg19
S'/Library/Fonts/KozMinPro-Regular.otf'
p505
sg21
g22
sbag7
(g8
g9
NtRp506
(dp507
g12
g13
sg14
S'Kai'
p508
sg16
I400
sg17
g13
sg18
g13
sg19
S'/Library/Fonts/Kai.ttf'
p509
sg21
g22
sbag7
(g8
g9
NtRp510
(dp511
g12
g94
sg14
S'Courier New'
p512
sg16
I400
sg17
g13
sg18
g13
sg19
S'/Library/Fonts/Courier New Italic.ttf'
p513
sg21
g22
sbag7
(g8
g9
NtRp514
(dp515
g12
g13
sg14
S'Arial Black'
p516
sg16
I900
sg17
g13
sg18
g13
sg19
S'/Library/Fonts/Arial Black.ttf'
p517
sg21
g22
sbag7
(g8
g9
NtRp518
(dp519
g12
g94
sg14
S'Myriad Pro'
p520
sg16
I700
sg17
g13
sg18
g13
sg19
S'/Library/Fonts/MyriadPro-SemiboldIt.otf'
p521
sg21
g22
sbag7
(g8
g9
NtRp522
(dp523
g12
g13
sg14
S'Luxi Serif'
p524
sg16
I400
sg17
g13
sg18
g13
sg19
S'/usr/X11/lib/X11/fonts/TTF/luxirr.ttf'
p525
sg21
g22
sbag7
(g8
g9
NtRp526
(dp527
g12
g13
sg14
S'Serto Mardin'
p528
sg16
I400
sg17
g13
sg18
g13
sg19
S'/usr/X11/lib/X11/fonts/OTF/SyrCOMMardin.otf'
p529
sg21
g22
sbag7
(g8
g9
NtRp530
(dp531
g12
g94
sg14
S'STIXGeneral'
p532
sg16
I400
sg17
g13
sg18
g13
sg19
S'/Library/Fonts/STIXGeneralItalic.otf'
p533
sg21
g22
sbag7
(g8
g9
NtRp534
(dp535
g12
g94
sg14
S'Myriad Pro'
p536
sg16
I700
sg17
g168
sg18
g13
sg19
S'/Library/Fonts/MyriadPro-BoldCondIt.otf'
p537
sg21
g22
sbag7
(g8
g9
NtRp538
(dp539
g12
g13
sg14
S'STIXSizeFourSym'
p540
sg16
I400
sg17
g13
sg18
g13
sg19
S'/Library/Fonts/STIXSizFourSymReg.otf'
p541
sg21
g22
sbag7
(g8
g9
NtRp542
(dp543
g12
g13
sg14
S'Adobe Kaiti Std'
p544
sg16
I400
sg17
g13
sg18
g13
sg19
S'/Library/Fonts/AdobeKaitiStd-Regular.otf'
p545
sg21
g22
sbag7
(g8
g9
NtRp546
(dp547
g12
g13
sg14
S'Microsoft Yi Baiti'
p548
sg16
I400
sg17
g13
sg18
g13
sg19
S'/Library/Fonts/Microsoft/msyi.ttf'
p549
sg21
g22
sbag7
(g8
g9
NtRp550
(dp551
g12
g13
sg14
S'Nueva Std'
p552
sg16
I400
sg17
g168
sg18
g13
sg19
S'/Library/Fonts/NuevaStd-Cond.otf'
p553
sg21
g22
sbag7
(g8
g9
NtRp554
(dp555
g12
g13
sg14
S'Wingdings 3'
p556
sg16
I400
sg17
g13
sg18
g13
sg19
S'/Library/Fonts/Wingdings 3.ttf'
p557
sg21
g22
sbag7
(g8
g9
NtRp558
(dp559
g12
g13
sg14
S'Consolas'
p560
sg16
I400
sg17
g13
sg18
g13
sg19
S'/Library/Fonts/Microsoft/Consolas.ttf'
p561
sg21
g22
sbag7
(g8
g9
NtRp562
(dp563
g12
g94
sg14
S'Perpetua'
p564
sg16
I400
sg17
g13
sg18
g13
sg19
S'/Library/Fonts/Microsoft/Perpetua Italic.ttf'
p565
sg21
g22
sbag7
(g8
g9
NtRp566
(dp567
g12
g13
sg14
S'Comic Sans MS'
p568
sg16
I400
sg17
g13
sg18
g13
sg19
S'/Library/Fonts/Comic Sans MS.ttf'
p569
sg21
g22
sbag7
(g8
g9
NtRp570
(dp571
g12
g13
sg14
S'Kozuka Mincho Pr6N'
p572
sg16
I400
sg17
g13
sg18
g13
sg19
S'/Library/Fonts/KozMinPr6N-Light.otf'
p573
sg21
g22
sbag7
(g8
g9
NtRp574
(dp575
g12
g13
sg14
S'PMingLiU'
p576
sg16
I400
sg17
g13
sg18
g13
sg19
S'/Library/Fonts/Microsoft/PMingLiU.ttf'
p577
sg21
g22
sbag7
(g8
g9
NtRp578
(dp579
g12
g13
sg14
S'Arial'
p580
sg16
I400
sg17
g13
sg18
g13
sg19
S'/Library/Fonts/Microsoft/Arial.ttf'
p581
sg21
g22
sbag7
(g8
g9
NtRp582
(dp583
g12
g13
sg14
S'STIXSizeFourSym'
p584
sg16
I700
sg17
g13
sg18
g13
sg19
S'/Library/Fonts/STIXSizFourSymBol.otf'
p585
sg21
g22
sbag7
(g8
g9
NtRp586
(dp587
g12
g13
sg14
S'Kozuka Gothic Pr6N'
p588
sg16
I400
sg17
g13
sg18
g13
sg19
S'/Library/Fonts/KozGoPr6N-Medium.otf'
p589
sg21
g22
sbag7
(g8
g9
NtRp590
(dp591
g12
g13
sg14
S'Marlett'
p592
sg16
I400
sg17
g13
sg18
g13
sg19
S'/Library/Fonts/Microsoft/Marlett.ttf'
p593
sg21
g22
sbag7
(g8
g9
NtRp594
(dp595
g12
g13
sg14
S'Calibri'
p596
sg16
I700
sg17
g13
sg18
g13
sg19
S'/Library/Fonts/Microsoft/Calibri Bold.ttf'
p597
sg21
g22
sbag7
(g8
g9
NtRp598
(dp599
g12
g13
sg14
S'Yuppy SC'
p600
sg16
I400
sg17
g13
sg18
g13
sg19
S'/Library/Fonts/YuppySC-Regular.otf'
p601
sg21
g22
sbag7
(g8
g9
NtRp602
(dp603
g12
g13
sg14
S'Minion Pro'
p604
sg16
I500
sg17
g13
sg18
g13
sg19
S'/Library/Fonts/MinionPro-Medium.otf'
p605
sg21
g22
sbag7
(g8
g9
NtRp606
(dp607
g12
g13
sg14
S'Wingdings'
p608
sg16
I400
sg17
g13
sg18
g13
sg19
S'/Library/Fonts/Wingdings.ttf'
p609
sg21
g22
sbag7
(g8
g9
NtRp610
(dp611
g12
g13
sg14
S'Impact'
p612
sg16
I400
sg17
g13
sg18
g13
sg19
S'/Library/Fonts/Impact.ttf'
p613
sg21
g22
sbag7
(g8
g9
NtRp614
(dp615
g12
g13
sg14
S'Tahoma'
p616
sg16
I700
sg17
g13
sg18
g13
sg19
S'/Library/Fonts/Tahoma Bold.ttf'
p617
sg21
g22
sbag7
(g8
g9
NtRp618
(dp619
g12
g94
sg14
S'Georgia'
p620
sg16
I700
sg17
g13
sg18
g13
sg19
S'/Library/Fonts/Georgia Bold Italic.ttf'
p621
sg21
g22
sbag7
(g8
g9
NtRp622
(dp623
g12
g13
sg14
S'Tekton Pro'
p624
sg16
I700
sg17
g168
sg18
g13
sg19
S'/Library/Fonts/TektonPro-BoldCond.otf'
p625
sg21
g22
sbag7
(g8
g9
NtRp626
(dp627
g12
g81
sg14
S'Luxi Mono'
p628
sg16
I700
sg17
g13
sg18
g13
sg19
S'/usr/X11/lib/X11/fonts/TTF/luximbi.ttf'
p629
sg21
g22
sbag7
(g8
g9
NtRp630
(dp631
g12
g94
sg14
S'Arno Pro'
p632
sg16
I700
sg17
g13
sg18
g13
sg19
S'/Library/Fonts/ArnoPro-BoldItalicCaption.otf'
p633
sg21
g22
sbag7
(g8
g9
NtRp634
(dp635
g12
g13
sg14
S'Hoefler Text'
p636
sg16
I400
sg17
g13
sg18
g13
sg19
S'/Library/Fonts/Hoefler Text Ornaments.ttf'
p637
sg21
g22
sbag7
(g8
g9
NtRp638
(dp639
g12
g13
sg14
S'Estrangelo Nisibin'
p640
sg16
I400
sg17
g13
sg18
g13
sg19
S'/usr/X11/lib/X11/fonts/OTF/SyrCOMNisibin.otf'
p641
sg21
g22
sbag7
(g8
g9
NtRp642
(dp643
g12
g94
sg14
S'Adobe Arabic'
p644
sg16
I400
sg17
g13
sg18
g13
sg19
S'/Library/Fonts/AdobeArabic-Italic.otf'
p645
sg21
g22
sbag7
(g8
g9
NtRp646
(dp647
g12
g13
sg14
S'Hiragino Mincho ProN'
p648
sg16
I700
sg17
g13
sg18
g13
sg19
S'/System/Library/Fonts/\xe3\x83\x92\xe3\x83\xa9\xe3\x82\xad\xe3\x82\x99\xe3\x83\x8e\xe6\x98\x8e\xe6\x9c\x9d ProN W6.otf'
p649
sg21
g22
sbag7
(g8
g9
NtRp650
(dp651
g12
g13
sg14
S'Rosewood Std'
p652
sg16
I400
sg17
g13
sg18
g13
sg19
S'/Library/Fonts/RosewoodStd-Regular.otf'
p653
sg21
g22
sbag7
(g8
g9
NtRp654
(dp655
g12
g13
sg14
S'Adobe Arabic'
p656
sg16
I700
sg17
g13
sg18
g13
sg19
S'/Library/Fonts/AdobeArabic-Bold.otf'
p657
sg21
g22
sbag7
(g8
g9
NtRp658
(dp659
g12
g13
sg14
S'PilGi'
p660
sg16
I400
sg17
g13
sg18
g13
sg19
S'/Library/Fonts/Pilgiche.ttf'
p661
sg21
g22
sbag7
(g8
g9
NtRp662
(dp663
g12
g13
sg14
S'Gill Sans MT'
p664
sg16
I400
sg17
g13
sg18
g13
sg19
S'/Library/Fonts/Microsoft/Gill Sans MT.ttf'
p665
sg21
g22
sbag7
(g8
g9
NtRp666
(dp667
g12
g94
sg14
S'Arno Pro'
p668
sg16
I400
sg17
g13
sg18
g13
sg19
S'/Library/Fonts/ArnoPro-ItalicCaption.otf'
p669
sg21
g22
sbag7
(g8
g9
NtRp670
(dp671
g12
g94
sg14
S'Verdana'
p672
sg16
I400
sg17
g13
sg18
g13
sg19
S'/Library/Fonts/Microsoft/Verdana Italic.ttf'
p673
sg21
g22
sbag7
(g8
g9
NtRp674
(dp675
g12
g13
sg14
S'YuGothic'
p676
sg16
I400
sg17
g13
sg18
g13
sg19
S'/Library/Fonts/Yu Gothic Medium.otf'
p677
sg21
g22
sbag7
(g8
g9
NtRp678
(dp679
g12
g13
sg14
S'Gujarati MT'
p680
sg16
I700
sg17
g13
sg18
g13
sg19
S'/Library/Fonts/GujaratiMTBold.ttf'
p681
sg21
g22
sbag7
(g8
g9
NtRp682
(dp683
g12
g94
sg14
S'Letter Gothic Std'
p684
sg16
I700
sg17
g13
sg18
g13
sg19
S'/Library/Fonts/LetterGothicStd-BoldSlanted.otf'
p685
sg21
g22
sbag7
(g8
g9
NtRp686
(dp687
g12
g13
sg14
S'Luxi Mono'
p688
sg16
I700
sg17
g13
sg18
g13
sg19
S'/usr/X11/lib/X11/fonts/TTF/luximb.ttf'
p689
sg21
g22
sbag7
(g8
g9
NtRp690
(dp691
g12
g94
sg14
S'Nueva Std'
p692
sg16
I400
sg17
g168
sg18
g13
sg19
S'/Library/Fonts/NuevaStd-CondItalic.otf'
p693
sg21
g22
sbag7
(g8
g9
NtRp694
(dp695
g12
g94
sg14
S'Arial'
p696
sg16
I400
sg17
g13
sg18
g13
sg19
S'/Library/Fonts/Microsoft/Arial Italic.ttf'
p697
sg21
g22
sbag7
(g8
g9
NtRp698
(dp699
g12
g81
sg14
S'Luxi Sans'
p700
sg16
I400
sg17
g13
sg18
g13
sg19
S'/usr/X11/lib/X11/fonts/TTF/luxisri.ttf'
p701
sg21
g22
sbag7
(g8
g9
NtRp702
(dp703
g12
g13
sg14
S'Zapf Dingbats'
p704
sg16
I400
sg17
g13
sg18
g13
sg19
S'/System/Library/Fonts/ZapfDingbats.ttf'
p705
sg21
g22
sbag7
(g8
g9
NtRp706
(dp707
g12
g94
sg14
S'Calibri'
p708
sg16
I700
sg17
g13
sg18
g13
sg19
S'/Library/Fonts/Microsoft/Calibri Bold Italic.ttf'
p709
sg21
g22
sbag7
(g8
g9
NtRp710
(dp711
g12
g13
sg14
S'Apple LiSung'
p712
sg16
I200
sg17
g13
sg18
g13
sg19
S'/Library/Fonts/Apple LiSung Light.ttf'
p713
sg21
g22
sbag7
(g8
g9
NtRp714
(dp715
g12
g94
sg14
S'Corbel'
p716
sg16
I700
sg17
g13
sg18
g13
sg19
S'/Library/Fonts/Microsoft/Corbel Bold Italic.ttf'
p717
sg21
g22
sbag7
(g8
g9
NtRp718
(dp719
g12
g13
sg14
S'Adobe Garamond Pro'
p720
sg16
I700
sg17
g13
sg18
g13
sg19
S'/Library/Fonts/AGaramondPro-Bold.otf'
p721
sg21
g22
sbag7
(g8
g9
NtRp722
(dp723
g12
g13
sg14
S'Stencil Std'
p724
sg16
I700
sg17
g13
sg18
g13
sg19
S'/Library/Fonts/StencilStd.otf'
p725
sg21
g22
sbag7
(g8
g9
NtRp726
(dp727
g12
g13
sg14
S'Arno Pro'
p728
sg16
I400
sg17
g13
sg18
g13
sg19
S'/Library/Fonts/ArnoPro-Regular.otf'
p729
sg21
g22
sbag7
(g8
g9
NtRp730
(dp731
g12
g13
sg14
S'Myriad Pro'
p732
sg16
I400
sg17
g13
sg18
g13
sg19
S'/Library/Fonts/MyriadPro-Regular.otf'
p733
sg21
g22
sbag7
(g8
g9
NtRp734
(dp735
g12
g13
sg14
S'Myriad Pro'
p736
sg16
I400
sg17
g168
sg18
g13
sg19
S'/Library/Fonts/MyriadPro-Cond.otf'
p737
sg21
g22
sbag7
(g8
g9
NtRp738
(dp739
g12
g94
sg14
S'Trebuchet MS'
p740
sg16
I700
sg17
g13
sg18
g13
sg19
S'/Library/Fonts/Trebuchet MS Bold Italic.ttf'
p741
sg21
g22
sbag7
(g8
g9
NtRp742
(dp743
g12
g13
sg14
S'Arno Pro'
p744
sg16
I700
sg17
g13
sg18
g13
sg19
S'/Library/Fonts/ArnoPro-BoldDisplay.otf'
p745
sg21
g22
sbag7
(g8
g9
NtRp746
(dp747
g12
g13
sg14
S'STIXIntegralsSm'
p748
sg16
I700
sg17
g13
sg18
g13
sg19
S'/Library/Fonts/STIXIntSmBol.otf'
p749
sg21
g22
sbag7
(g8
g9
NtRp750
(dp751
g12
g13
sg14
S'Adobe Ming Std'
p752
sg16
I400
sg17
g13
sg18
g13
sg19
S'/Library/Fonts/AdobeMingStd-Light.otf'
p753
sg21
g22
sbag7
(g8
g9
NtRp754
(dp755
g12
g13
sg14
S'Meiryo'
p756
sg16
I700
sg17
g13
sg18
g13
sg19
S'/Library/Fonts/Microsoft/Meiryo Bold.ttf'
p757
sg21
g22
sbag7
(g8
g9
NtRp758
(dp759
g12
g13
sg14
S'Cooper Std'
p760
sg16
I900
sg17
g13
sg18
g13
sg19
S'/Library/Fonts/CooperBlackStd.otf'
p761
sg21
g22
sbag7
(g8
g9
NtRp762
(dp763
g12
g13
sg14
S'Bell Gothic Std'
p764
sg16
I700
sg17
g13
sg18
g13
sg19
S'/Library/Fonts/BellGothicStd-Bold.otf'
p765
sg21
g22
sbag7
(g8
g9
NtRp766
(dp767
g12
g13
sg14
S'Kozuka Gothic Pro'
p768
sg16
I400
sg17
g13
sg18
g13
sg19
S'/Library/Fonts/KozGoPro-ExtraLight.otf'
p769
sg21
g22
sbag7
(g8
g9
NtRp770
(dp771
g12
g94
sg14
S'Tw Cen MT'
p772
sg16
I400
sg17
g13
sg18
g13
sg19
S'/Library/Fonts/Microsoft/Tw Cen MT Italic.ttf'
p773
sg21
g22
sbag7
(g8
g9
NtRp774
(dp775
g12
g13
sg14
S'Bookshelf Symbol 7'
p776
sg16
I400
sg17
g13
sg18
g13
sg19
S'/Library/Fonts/Microsoft/Bookshelf Symbol 7.ttf'
p777
sg21
g22
sbag7
(g8
g9
NtRp778
(dp779
g12
g94
sg14
S'Chaparral Pro'
p780
sg16
I700
sg17
g13
sg18
g13
sg19
S'/Library/Fonts/ChaparralPro-BoldIt.otf'
p781
sg21
g22
sbag7
(g8
g9
NtRp782
(dp783
g12
g13
sg14
S'Consolas'
p784
sg16
I700
sg17
g13
sg18
g13
sg19
S'/Library/Fonts/Microsoft/Consolas Bold.ttf'
p785
sg21
g22
sbag7
(g8
g9
NtRp786
(dp787
g12
g13
sg14
S'Adobe Song Std'
p788
sg16
I400
sg17
g13
sg18
g13
sg19
S'/Library/Fonts/AdobeSongStd-Light.otf'
p789
sg21
g22
sbag7
(g8
g9
NtRp790
(dp791
g12
g13
sg14
S'Hiragino Sans GB'
p792
sg16
I400
sg17
g13
sg18
g13
sg19
S'/Library/Fonts/Hiragino Sans GB W3.otf'
p793
sg21
g22
sbag7
(g8
g9
NtRp794
(dp795
g12
g13
sg14
S'Arno Pro'
p796
sg16
I700
sg17
g13
sg18
g13
sg19
S'/Library/Fonts/ArnoPro-SmbdDisplay.otf'
p797
sg21
g22
sbag7
(g8
g9
NtRp798
(dp799
g12
g94
sg14
S'Adobe Hebrew'
p800
sg16
I700
sg17
g13
sg18
g13
sg19
S'/Library/Fonts/AdobeHebrew-BoldItalic.otf'
p801
sg21
g22
sbag7
(g8
g9
NtRp802
(dp803
g12
g13
sg14
S'Luxi Sans'
p804
sg16
I700
sg17
g13
sg18
g13
sg19
S'/usr/X11/lib/X11/fonts/TTF/luxisb.ttf'
p805
sg21
g22
sbag7
(g8
g9
NtRp806
(dp807
g12
g13
sg14
S'STIXNonUnicode'
p808
sg16
I400
sg17
g13
sg18
g13
sg19
S'/Library/Fonts/STIXNonUni.otf'
p809
sg21
g22
sbag7
(g8
g9
NtRp810
(dp811
g12
g13
sg14
S'Trebuchet MS'
p812
sg16
I700
sg17
g13
sg18
g13
sg19
S'/Library/Fonts/Trebuchet MS Bold.ttf'
p813
sg21
g22
sbag7
(g8
g9
NtRp814
(dp815
g12
g13
sg14
S'LiSong Pro'
p816
sg16
I400
sg17
g13
sg18
g13
sg19
S'/Library/Fonts/\xe5\x84\xb7\xe5\xae\x8b Pro.ttf'
p817
sg21
g22
sbag7
(g8
g9
NtRp818
(dp819
g12
g94
sg14
S'STIXNonUnicode'
p820
sg16
I700
sg17
g13
sg18
g13
sg19
S'/Library/Fonts/STIXNonUniBolIta.otf'
p821
sg21
g22
sbag7
(g8
g9
NtRp822
(dp823
g12
g13
sg14
S'Brush Script Std'
p824
sg16
I500
sg17
g13
sg18
g13
sg19
S'/Library/Fonts/BrushScriptStd.otf'
p825
sg21
g22
sbag7
(g8
g9
NtRp826
(dp827
g12
g13
sg14
S'Wawati SC'
p828
sg16
I400
sg17
g13
sg18
g13
sg19
S'/Library/Fonts/WawaSC-Regular.otf'
p829
sg21
g22
sbag7
(g8
g9
NtRp830
(dp831
g12
g13
sg14
S'SimHei'
p832
sg16
I400
sg17
g13
sg18
g13
sg19
S'/Library/Fonts/Microsoft/SimHei.ttf'
p833
sg21
g22
sbag7
(g8
g9
NtRp834
(dp835
g12
g81
sg14
S'Luxi Serif'
p836
sg16
I700
sg17
g13
sg18
g13
sg19
S'/usr/X11R6/lib/X11/fonts/TTF/luxirbi.ttf'
p837
sg21
g22
sbag7
(g8
g9
NtRp838
(dp839
g12
g13
sg14
S'Apple SD Gothic Neo'
p840
sg16
I200
sg17
g13
sg18
g13
sg19
S'/Library/Fonts/AppleSDGothicNeo-Light.otf'
p841
sg21
g22
sbag7
(g8
g9
NtRp842
(dp843
g12
g13
sg14
S'Adobe Caslon Pro'
p844
sg16
I700
sg17
g13
sg18
g13
sg19
S'/Library/Fonts/ACaslonPro-Bold.otf'
p845
sg21
g22
sbag7
(g8
g9
NtRp846
(dp847
g12
g13
sg14
S'Arno Pro'
p848
sg16
I400
sg17
g13
sg18
g13
sg19
S'/Library/Fonts/ArnoPro-Display.otf'
p849
sg21
g22
sbag7
(g8
g9
NtRp850
(dp851
g12
g13
sg14
S'STIXIntegralsSm'
p852
sg16
I400
sg17
g13
sg18
g13
sg19
S'/Library/Fonts/STIXIntSmReg.otf'
p853
sg21
g22
sbag7
(g8
g9
NtRp854
(dp855
g12
g13
sg14
S'Myriad Pro'
p856
sg16
I700
sg17
g168
sg18
g13
sg19
S'/Library/Fonts/MyriadPro-BoldCond.otf'
p857
sg21
g22
sbag7
(g8
g9
NtRp858
(dp859
g12
g94
sg14
S'Adobe Caslon Pro'
p860
sg16
I400
sg17
g13
sg18
g13
sg19
S'/Library/Fonts/ACaslonPro-Italic.otf'
p861
sg21
g22
sbag7
(g8
g9
NtRp862
(dp863
g12
g13
sg14
S'MS PGothic'
p864
sg16
I400
sg17
g13
sg18
g13
sg19
S'/Library/Fonts/Microsoft/MS PGothic.ttf'
p865
sg21
g22
sbag7
(g8
g9
NtRp866
(dp867
g12
g13
sg14
S'Constantia'
p868
sg16
I400
sg17
g13
sg18
g13
sg19
S'/Library/Fonts/Microsoft/Constantia.ttf'
p869
sg21
g22
sbag7
(g8
g9
NtRp870
(dp871
g12
g13
sg14
S'Chalkduster'
p872
sg16
I400
sg17
g13
sg18
g13
sg19
S'/Library/Fonts/Chalkduster.ttf'
p873
sg21
g22
sbag7
(g8
g9
NtRp874
(dp875
g12
g13
sg14
S'Estrangelo Antioch'
p876
sg16
I400
sg17
g13
sg18
g13
sg19
S'/usr/X11/lib/X11/fonts/OTF/SyrCOMAntioch.otf'
p877
sg21
g22
sbag7
(g8
g9
NtRp878
(dp879
g12
g13
sg14
S'Weibei TC'
p880
sg16
I700
sg17
g13
sg18
g13
sg19
S'/Library/Fonts/WeibeiTC-Bold.otf'
p881
sg21
g22
sbag7
(g8
g9
NtRp882
(dp883
g12
g13
sg14
S'Serto Batnan'
p884
sg16
I700
sg17
g13
sg18
g13
sg19
S'/usr/X11/lib/X11/fonts/OTF/SyrCOMBatnanBold.otf'
p885
sg21
g22
sbag7
(g8
g9
NtRp886
(dp887
g12
g94
sg14
S'Minion Pro'
p888
sg16
I700
sg17
g13
sg18
g13
sg19
S'/Library/Fonts/MinionPro-BoldIt.otf'
p889
sg21
g22
sbag7
(g8
g9
NtRp890
(dp891
g12
g13
sg14
S'Serto Jerusalem'
p892
sg16
I700
sg17
g13
sg18
g13
sg19
S'/usr/X11/lib/X11/fonts/OTF/SyrCOMJerusalemBold.otf'
p893
sg21
g22
sbag7
(g8
g9
NtRp894
(dp895
g12
g13
sg14
S'Arno Pro'
p896
sg16
I700
sg17
g13
sg18
g13
sg19
S'/Library/Fonts/ArnoPro-BoldSubhead.otf'
p897
sg21
g22
sbag7
(g8
g9
NtRp898
(dp899
g12
g13
sg14
S'Adobe Caslon Pro'
p900
sg16
I400
sg17
g13
sg18
g13
sg19
S'/Library/Fonts/ACaslonPro-Regular.otf'
p901
sg21
g22
sbag7
(g8
g9
NtRp902
(dp903
g12
g13
sg14
S'STIXIntegralsUp'
p904
sg16
I400
sg17
g13
sg18
g13
sg19
S'/Library/Fonts/STIXIntUpReg.otf'
p905
sg21
g22
sbag7
(g8
g9
NtRp906
(dp907
g12
g13
sg14
S'Mesquite Std'
p908
sg16
I500
sg17
g13
sg18
g13
sg19
S'/Library/Fonts/MesquiteStd.otf'
p909
sg21
g22
sbag7
(g8
g9
NtRp910
(dp911
g12
g13
sg14
S'Big Caslon'
p912
sg16
I500
sg17
g13
sg18
g13
sg19
S'/Library/Fonts/BigCaslon.ttf'
p913
sg21
g22
sbag7
(g8
g9
NtRp914
(dp915
g12
g94
sg14
S'Adobe Hebrew'
p916
sg16
I400
sg17
g13
sg18
g13
sg19
S'/Library/Fonts/AdobeHebrew-Italic.otf'
p917
sg21
g22
sbag7
(g8
g9
NtRp918
(dp919
g12
g13
sg14
S'Ayuthaya'
p920
sg16
I400
sg17
g13
sg18
g13
sg19
S'/Library/Fonts/Ayuthaya.ttf'
p921
sg21
g22
sbag7
(g8
g9
NtRp922
(dp923
g12
g13
sg14
S'Orator Std'
p924
sg16
I500
sg17
g13
sg18
g13
sg19
S'/Library/Fonts/OratorStd.otf'
p925
sg21
g22
sbag7
(g8
g9
NtRp926
(dp927
g12
g13
sg14
S'Blackoak Std'
p928
sg16
I900
sg17
g13
sg18
g13
sg19
S'/Library/Fonts/BlackoakStd.otf'
p929
sg21
g22
sbag7
(g8
g9
NtRp930
(dp931
g12
g13
sg14
S'Hiragino Kaku Gothic Pro'
p932
sg16
I700
sg17
g13
sg18
g13
sg19
S'/Library/Fonts/\xe3\x83\x92\xe3\x83\xa9\xe3\x82\xad\xe3\x82\x99\xe3\x83\x8e\xe8\xa7\x92\xe3\x82\xb3\xe3\x82\x99 Pro W6.otf'
p933
sg21
g22
sbag7
(g8
g9
NtRp934
(dp935
g12
g13
sg14
S'Arno Pro'
p936
sg16
I200
sg17
g13
sg18
g13
sg19
S'/Library/Fonts/ArnoPro-LightDisplay.otf'
p937
sg21
g22
sbag7
(g8
g9
NtRp938
(dp939
g12
g94
sg14
S'Minion Pro'
p940
sg16
I400
sg17
g13
sg18
g13
sg19
S'/Library/Fonts/MinionPro-It.otf'
p941
sg21
g22
sbag7
(g8
g9
NtRp942
(dp943
g12
g94
sg14
S'Arno Pro'
p944
sg16
I400
sg17
g13
sg18
g13
sg19
S'/Library/Fonts/ArnoPro-Italic.otf'
p945
sg21
g22
sbag7
(g8
g9
NtRp946
(dp947
g12
g13
sg14
S'Minion Pro'
p948
sg16
I700
sg17
g13
sg18
g13
sg19
S'/Library/Fonts/MinionPro-Bold.otf'
p949
sg21
g22
sbag7
(g8
g9
NtRp950
(dp951
g12
g13
sg14
S'YuMincho'
p952
sg16
I400
sg17
g13
sg18
g13
sg19
S'/Library/Fonts/Yu Mincho Medium.otf'
p953
sg21
g22
sbag7
(g8
g9
NtRp954
(dp955
g12
g94
sg14
S'Minion Pro'
p956
sg16
I700
sg17
g168
sg18
g13
sg19
S'/Library/Fonts/MinionPro-BoldCnIt.otf'
p957
sg21
g22
sbag7
(g8
g9
NtRp958
(dp959
g12
g13
sg14
S'Andale Mono'
p960
sg16
I400
sg17
g13
sg18
g13
sg19
S'/Library/Fonts/Andale Mono.ttf'
p961
sg21
g22
sbag7
(g8
g9
NtRp962
(dp963
g12
g94
sg14
S'Consolas'
p964
sg16
I400
sg17
g13
sg18
g13
sg19
S'/Library/Fonts/Microsoft/Consolas Italic.ttf'
p965
sg21
g22
sbag7
(g8
g9
NtRp966
(dp967
g12
g13
sg14
S'Letter Gothic Std'
p968
sg16
I700
sg17
g13
sg18
g13
sg19
S'/Library/Fonts/LetterGothicStd-Bold.otf'
p969
sg21
g22
sbag7
(g8
g9
NtRp970
(dp971
g12
g13
sg14
S'Silom'
p972
sg16
I400
sg17
g13
sg18
g13
sg19
S'/Library/Fonts/Silom.ttf'
p973
sg21
g22
sbag7
(g8
g9
NtRp974
(dp975
g12
g81
sg14
S'Mshtakan'
p976
sg16
I700
sg17
g13
sg18
g13
sg19
S'/Library/Fonts/MshtakanBoldOblique.ttf'
p977
sg21
g22
sbag7
(g8
g9
NtRp978
(dp979
g12
g13
sg14
S'Luxi Mono'
p980
sg16
I400
sg17
g13
sg18
g13
sg19
S'/usr/X11/lib/X11/fonts/TTF/luximr.ttf'
p981
sg21
g22
sbag7
(g8
g9
NtRp982
(dp983
g12
g94
sg14
S'Calibri'
p984
sg16
I400
sg17
g13
sg18
g13
sg19
S'/Library/Fonts/Microsoft/Calibri Italic.ttf'
p985
sg21
g22
sbag7
(g8
g9
NtRp986
(dp987
g12
g13
sg14
S'Candara'
p988
sg16
I400
sg17
g13
sg18
g13
sg19
S'/Library/Fonts/Microsoft/Candara.ttf'
p989
sg21
g22
sbag7
(g8
g9
NtRp990
(dp991
g12
g13
sg14
S'MingLiU'
p992
sg16
I400
sg17
g13
sg18
g13
sg19
S'/Library/Fonts/Microsoft/MingLiU.ttf'
p993
sg21
g22
sbag7
(g8
g9
NtRp994
(dp995
g12
g13
sg14
S'Gulim'
p996
sg16
I400
sg17
g13
sg18
g13
sg19
S'/Library/Fonts/Microsoft/Gulim.ttf'
p997
sg21
g22
sbag7
(g8
g9
NtRp998
(dp999
g12
g13
sg14
S'Lao Sangam MN'
p1000
sg16
I400
sg17
g13
sg18
g13
sg19
S'/Library/Fonts/Lao Sangam MN.ttf'
p1001
sg21
g22
sbag7
(g8
g9
NtRp1002
(dp1003
g12
g13
sg14
S'Goha-Tibeb Zemen'
p1004
sg16
I400
sg17
g13
sg18
g13
sg19
S'/usr/X11R6/lib/X11/fonts/TTF/GohaTibebZemen.ttf'
p1005
sg21
g22
sbag7
(g8
g9
NtRp1006
(dp1007
g12
g13
sg14
S'KufiStandardGK'
p1008
sg16
I400
sg17
g13
sg18
g13
sg19
S'/Library/Fonts/KufiStandardGK.ttf'
p1009
sg21
g22
sbag7
(g8
g9
NtRp1010
(dp1011
g12
g13
sg14
S'Hei'
p1012
sg16
I400
sg17
g13
sg18
g13
sg19
S'/Library/Fonts/Hei.ttf'
p1013
sg21
g22
sbag7
(g8
g9
NtRp1014
(dp1015
g12
g94
sg14
S'Cambria'
p1016
sg16
I700
sg17
g13
sg18
g13
sg19
S'/Library/Fonts/Microsoft/Cambria Bold Italic.ttf'
p1017
sg21
g22
sbag7
(g8
g9
NtRp1018
(dp1019
g12
g13
sg14
S'Gabriola'
p1020
sg16
I400
sg17
g13
sg18
g13
sg19
S'/Library/Fonts/Microsoft/Gabriola.ttf'
p1021
sg21
g22
sbag7
(g8
g9
NtRp1022
(dp1023
g12
g13
sg14
S'Hiragino Mincho ProN'
p1024
sg16
I400
sg17
g13
sg18
g13
sg19
S'/System/Library/Fonts/\xe3\x83\x92\xe3\x83\xa9\xe3\x82\xad\xe3\x82\x99\xe3\x83\x8e\xe6\x98\x8e\xe6\x9c\x9d ProN W3.otf'
p1025
sg21
g22
sbag7
(g8
g9
NtRp1026
(dp1027
g12
g94
sg14
S'Adobe Caslon Pro'
p1028
sg16
I700
sg17
g13
sg18
g13
sg19
S'/Library/Fonts/ACaslonPro-BoldItalic.otf'
p1029
sg21
g22
sbag7
(g8
g9
NtRp1030
(dp1031
g12
g94
sg14
S'Adobe Caslon Pro'
p1032
sg16
I700
sg17
g13
sg18
g13
sg19
S'/Library/Fonts/ACaslonPro-SemiboldItalic.otf'
p1033
sg21
g22
sbag7
(g8
g9
NtRp1034
(dp1035
g12
g13
sg14
S'Garamond Premier Pro'
p1036
sg16
I700
sg17
g13
sg18
g13
sg19
S'/Library/Fonts/GaramondPremrPro-Smbd.otf'
p1037
sg21
g22
sbag7
(g8
g9
NtRp1038
(dp1039
g12
g94
sg14
S'Arno Pro'
p1040
sg16
I400
sg17
g13
sg18
g13
sg19
S'/Library/Fonts/ArnoPro-ItalicSubhead.otf'
p1041
sg21
g22
sbag7
(g8
g9
NtRp1042
(dp1043
g12
g13
sg14
S'Kozuka Gothic Pr6N'
p1044
sg16
I400
sg17
g13
sg18
g13
sg19
S'/Library/Fonts/KozGoPr6N-ExtraLight.otf'
p1045
sg21
g22
sbag7
(g8
g9
NtRp1046
(dp1047
g12
g13
sg14
S'OCR A Std'
p1048
sg16
I400
sg17
g13
sg18
g13
sg19
S'/Library/Fonts/OCRAStd.otf'
p1049
sg21
g22
sbag7
(g8
g9
NtRp1050
(dp1051
g12
g13
sg14
S'Bickham Script Pro'
p1052
sg16
I400
sg17
g13
sg18
g13
sg19
S'/Library/Fonts/BickhamScriptPro-Regular.otf'
p1053
sg21
g22
sbag7
(g8
g9
NtRp1054
(dp1055
g12
g13
sg14
S'Arno Pro'
p1056
sg16
I400
sg17
g13
sg18
g13
sg19
S'/Library/Fonts/ArnoPro-Subhead.otf'
p1057
sg21
g22
sbag7
(g8
g9
NtRp1058
(dp1059
g12
g13
sg14
S'STIXSizeThreeSym'
p1060
sg16
I400
sg17
g13
sg18
g13
sg19
S'/Library/Fonts/STIXSizThreeSymReg.otf'
p1061
sg21
g22
sbag7
(g8
g9
NtRp1062
(dp1063
g12
g13
sg14
S'DIN Condensed'
p1064
sg16
I700
sg17
g168
sg18
g13
sg19
S'/Library/Fonts/DIN Condensed Bold.ttf'
p1065
sg21
g22
sbag7
(g8
g9
NtRp1066
(dp1067
g12
g81
sg14
S'Luxi Serif'
p1068
sg16
I400
sg17
g13
sg18
g13
sg19
S'/usr/X11R6/lib/X11/fonts/TTF/luxirri.ttf'
p1069
sg21
g22
sbag7
(g8
g9
NtRp1070
(dp1071
g12
g13
sg14
S'Microsoft Himalaya'
p1072
sg16
I400
sg17
g13
sg18
g13
sg19
S'/Library/Fonts/Microsoft/himalaya.ttf'
p1073
sg21
g22
sbag7
(g8
g9
NtRp1074
(dp1075
g12
g13
sg14
S'AppleGothic'
p1076
sg16
I400
sg17
g13
sg18
g13
sg19
S'/Library/Fonts/AppleGothic.ttf'
p1077
sg21
g22
sbag7
(g8
g9
NtRp1078
(dp1079
g12
g13
sg14
S'Arial Narrow'
p1080
sg16
I400
sg17
g168
sg18
g13
sg19
S'/Library/Fonts/Arial Narrow.ttf'
p1081
sg21
g22
sbag7
(g8
g9
NtRp1082
(dp1083
g12
g13
sg14
S'Apple SD Gothic Neo'
p1084
sg16
I700
sg17
g13
sg18
g13
sg19
S'/System/Library/Fonts/AppleSDGothicNeo-Bold.otf'
p1085
sg21
g22
sbag7
(g8
g9
NtRp1086
(dp1087
g12
g81
sg14
S'Mshtakan'
p1088
sg16
I400
sg17
g13
sg18
g13
sg19
S'/Library/Fonts/MshtakanOblique.ttf'
p1089
sg21
g22
sbag7
(g8
g9
NtRp1090
(dp1091
g12
g94
sg14
S'Times New Roman'
p1092
sg16
I500
sg17
g13
sg18
g13
sg19
S'/Library/Fonts/Microsoft/Times New Roman Italic.ttf'
p1093
sg21
g22
sbag7
(g8
g9
NtRp1094
(dp1095
g12
g13
sg14
S'Garamond Premier Pro'
p1096
sg16
I400
sg17
g13
sg18
g13
sg19
S'/Library/Fonts/GaramondPremrPro.otf'
p1097
sg21
g22
sbag7
(g8
g9
NtRp1098
(dp1099
g12
g13
sg14
S'PMingLiU-ExtB'
p1100
sg16
I400
sg17
g13
sg18
g13
sg19
S'/Library/Fonts/Microsoft/PMingLiU-ExtB.ttf'
p1101
sg21
g22
sbag7
(g8
g9
NtRp1102
(dp1103
g12
g81
sg14
S'Luxi Mono'
p1104
sg16
I400
sg17
g13
sg18
g13
sg19
S'/usr/X11/lib/X11/fonts/TTF/luximri.ttf'
p1105
sg21
g22
sbag7
(g8
g9
NtRp1106
(dp1107
g12
g13
sg14
S'Serto Mardin'
p1108
sg16
I700
sg17
g13
sg18
g13
sg19
S'/usr/X11/lib/X11/fonts/OTF/SyrCOMMardinBold.otf'
p1109
sg21
g22
sbag7
(g8
g9
NtRp1110
(dp1111
g12
g13
sg14
S'Myanmar Sangam MN'
p1112
sg16
I400
sg17
g13
sg18
g13
sg19
S'/Library/Fonts/Myanmar Sangam MN.ttf'
p1113
sg21
g22
sbag7
(g8
g9
NtRp1114
(dp1115
g12
g94
sg14
S'Arno Pro'
p1116
sg16
I700
sg17
g13
sg18
g13
sg19
S'/Library/Fonts/ArnoPro-SmbdItalicDisplay.otf'
p1117
sg21
g22
sbag7
(g8
g9
NtRp1118
(dp1119
g12
g13
sg14
S'Arial Narrow'
p1120
sg16
I700
sg17
g168
sg18
g13
sg19
S'/Library/Fonts/Arial Narrow Bold.ttf'
p1121
sg21
g22
sbag7
(g8
g9
NtRp1122
(dp1123
g12
g13
sg14
S'Georgia'
p1124
sg16
I400
sg17
g13
sg18
g13
sg19
S'/Library/Fonts/Georgia.ttf'
p1125
sg21
g22
sbag7
(g8
g9
NtRp1126
(dp1127
g12
g94
sg14
S'Nueva Std'
p1128
sg16
I700
sg17
g168
sg18
g13
sg19
S'/Library/Fonts/NuevaStd-BoldCondItalic.otf'
p1129
sg21
g22
sbag7
(g8
g9
NtRp1130
(dp1131
g12
g13
sg14
S'Charlemagne Std'
p1132
sg16
I700
sg17
g13
sg18
g13
sg19
S'/Library/Fonts/CharlemagneStd-Bold.otf'
p1133
sg21
g22
sbag7
(g8
g9
NtRp1134
(dp1135
g12
g13
sg14
S'Prestige Elite Std'
p1136
sg16
I700
sg17
g13
sg18
g13
sg19
S'/Library/Fonts/PrestigeEliteStd-Bd.otf'
p1137
sg21
g22
sbag7
(g8
g9
NtRp1138
(dp1139
g12
g13
sg14
S'Constantia'
p1140
sg16
I700
sg17
g13
sg18
g13
sg19
S'/Library/Fonts/Microsoft/Constantia Bold.ttf'
p1141
sg21
g22
sbag7
(g8
g9
NtRp1142
(dp1143
g12
g13
sg14
S'Minion Pro'
p1144
sg16
I400
sg17
g13
sg18
g13
sg19
S'/Library/Fonts/MinionPro-Regular.otf'
p1145
sg21
g22
sbag7
(g8
g9
NtRp1146
(dp1147
g12
g94
sg14
S'Times New Roman'
p1148
sg16
I700
sg17
g13
sg18
g13
sg19
S'/Library/Fonts/Times New Roman Bold Italic.ttf'
p1149
sg21
g22
sbag7
(g8
g9
NtRp1150
(dp1151
g12
g94
sg14
S'Arial Narrow'
p1152
sg16
I400
sg17
g168
sg18
g13
sg19
S'/Library/Fonts/Arial Narrow Italic.ttf'
p1153
sg21
g22
sbag7
(g8
g9
NtRp1154
(dp1155
g12
g13
sg14
S'Arno Pro'
p1156
sg16
I700
sg17
g13
sg18
g13
sg19
S'/Library/Fonts/ArnoPro-Smbd.otf'
p1157
sg21
g22
sbag7
(g8
g9
NtRp1158
(dp1159
g12
g13
sg14
S'LiHei Pro'
p1160
sg16
I400
sg17
g13
sg18
g13
sg19
S'/Library/Fonts/\xe5\x84\xb7\xe9\xbb\x91 Pro.ttf'
p1161
sg21
g22
sbag7
(g8
g9
NtRp1162
(dp1163
g12
g13
sg14
S'Apple SD Gothic Neo'
p1164
sg16
I400
sg17
g13
sg18
g13
sg19
S'/System/Library/Fonts/AppleSDGothicNeo-Regular.otf'
p1165
sg21
g22
sbag7
(g8
g9
NtRp1166
(dp1167
g12
g13
sg14
S'Arial'
p1168
sg16
I700
sg17
g13
sg18
g13
sg19
S'/Library/Fonts/Microsoft/Arial Bold.ttf'
p1169
sg21
g22
sbag7
(g8
g9
NtRp1170
(dp1171
g12
g13
sg14
S'Tw Cen MT'
p1172
sg16
I700
sg17
g13
sg18
g13
sg19
S'/Library/Fonts/Microsoft/Tw Cen MT Bold.ttf'
p1173
sg21
g22
sbag7
(g8
g9
NtRp1174
(dp1175
g12
g13
sg14
S'Plantagenet Cherokee'
p1176
sg16
I400
sg17
g13
sg18
g13
sg19
S'/Library/Fonts/PlantagenetCherokee.ttf'
p1177
sg21
g22
sbag7
(g8
g9
NtRp1178
(dp1179
g12
g13
sg14
S'BiauKai'
p1180
sg16
I400
sg17
g13
sg18
g13
sg19
S'/Library/Fonts/BiauKai.ttf'
p1181
sg21
g22
sbag7
(g8
g9
NtRp1182
(dp1183
g12
g94
sg14
S'Brush Script MT'
p1184
sg16
I400
sg17
g13
sg18
g13
sg19
S'/Library/Fonts/Microsoft/Brush Script.ttf'
p1185
sg21
g22
sbag7
(g8
g9
NtRp1186
(dp1187
g12
g94
sg14
S'Tw Cen MT'
p1188
sg16
I700
sg17
g13
sg18
g13
sg19
S'/Library/Fonts/Microsoft/Tw Cen MT Bold Italic.ttf'
p1189
sg21
g22
sbag7
(g8
g9
NtRp1190
(dp1191
g12
g13
sg14
S'STIXVariants'
p1192
sg16
I400
sg17
g13
sg18
g13
sg19
S'/Library/Fonts/STIXVar.otf'
p1193
sg21
g22
sbag7
(g8
g9
NtRp1194
(dp1195
g12
g94
sg14
S'Candara'
p1196
sg16
I700
sg17
g13
sg18
g13
sg19
S'/Library/Fonts/Microsoft/Candara Bold Italic.ttf'
p1197
sg21
g22
sbag7
(g8
g9
NtRp1198
(dp1199
g12
g13
sg14
S'Hiragino Kaku Gothic ProN'
p1200
sg16
I700
sg17
g13
sg18
g13
sg19
S'/System/Library/Fonts/\xe3\x83\x92\xe3\x83\xa9\xe3\x82\xad\xe3\x82\x99\xe3\x83\x8e\xe8\xa7\x92\xe3\x82\xb3\xe3\x82\x99 ProN W6.otf'
p1201
sg21
g22
sbag7
(g8
g9
NtRp1202
(dp1203
g12
g13
sg14
S'MS Reference Specialty'
p1204
sg16
I400
sg17
g13
sg18
g13
sg19
S'/Library/Fonts/Microsoft/MS Reference Specialty.ttf'
p1205
sg21
g22
sbag7
(g8
g9
NtRp1206
(dp1207
g12
g13
sg14
S'Birch Std'
p1208
sg16
I400
sg17
g13
sg18
g13
sg19
S'/Library/Fonts/BirchStd.otf'
p1209
sg21
g22
sbag7
(g8
g9
NtRp1210
(dp1211
g12
g13
sg14
S'Cambria Math'
p1212
sg16
I400
sg17
g13
sg18
g13
sg19
S'/Library/Fonts/Microsoft/Cambria Math.ttf'
p1213
sg21
g22
sbag7
(g8
g9
NtRp1214
(dp1215
g12
g13
sg14
S'Skia'
p1216
sg16
I400
sg17
g13
sg18
g13
sg19
S'/Library/Fonts/Skia.ttf'
p1217
sg21
g22
sbag7
(g8
g9
NtRp1218
(dp1219
g12
g13
sg14
S'Kozuka Gothic Pr6N'
p1220
sg16
I700
sg17
g13
sg18
g13
sg19
S'/Library/Fonts/KozGoPr6N-Bold.otf'
p1221
sg21
g22
sbag7
(g8
g9
NtRp1222
(dp1223
g12
g13
sg14
S'Adobe Arabic'
p1224
sg16
I400
sg17
g13
sg18
g13
sg19
S'/Library/Fonts/AdobeArabic-Regular.otf'
p1225
sg21
g22
sbag7
(g8
g9
NtRp1226
(dp1227
g12
g81
sg14
S'Luxi Sans'
p1228
sg16
I700
sg17
g13
sg18
g13
sg19
S'/usr/X11R6/lib/X11/fonts/TTF/luxisbi.ttf'
p1229
sg21
g22
sbag7
(g8
g9
NtRp1230
(dp1231
g12
g13
sg14
S'Kozuka Mincho Pro'
p1232
sg16
I700
sg17
g13
sg18
g13
sg19
S'/Library/Fonts/KozMinPro-Heavy.otf'
p1233
sg21
g22
sbag7
(g8
g9
NtRp1234
(dp1235
g12
g13
sg14
S'YuMincho'
p1236
sg16
I700
sg17
g13
sg18
g13
sg19
S'/Library/Fonts/Yu Mincho Demibold.otf'
p1237
sg21
g22
sbag7
(g8
g9
NtRp1238
(dp1239
g12
g13
sg14
S'STFangsong'
p1240
sg16
I400
sg17
g13
sg18
g13
sg19
S'/Library/Fonts/\xe5\x8d\x8e\xe6\x96\x87\xe4\xbb\xbf\xe5\xae\x8b.ttf'
p1241
sg21
g22
sbag7
(g8
g9
NtRp1242
(dp1243
g12
g13
sg14
S'Arno Pro'
p1244
sg16
I700
sg17
g13
sg18
g13
sg19
S'/Library/Fonts/ArnoPro-Bold.otf'
p1245
sg21
g22
sbag7
(g8
g9
NtRp1246
(dp1247
g12
g13
sg14
S'Lithos Pro'
p1248
sg16
I400
sg17
g13
sg18
g13
sg19
S'/Library/Fonts/LithosPro-Regular.otf'
p1249
sg21
g22
sbag7
(g8
g9
NtRp1250
(dp1251
g12
g13
sg14
S'Giddyup Std'
p1252
sg16
I400
sg17
g13
sg18
g13
sg19
S'/Library/Fonts/GiddyupStd.otf'
p1253
sg21
g22
sbag7
(g8
g9
NtRp1254
(dp1255
g12
g13
sg14
S'Kozuka Mincho Pro'
p1256
sg16
I700
sg17
g13
sg18
g13
sg19
S'/Library/Fonts/KozMinPro-Bold.otf'
p1257
sg21
g22
sbag7
(g8
g9
NtRp1258
(dp1259
g12
g13
sg14
S'Perpetua'
p1260
sg16
I400
sg17
g13
sg18
g13
sg19
S'/Library/Fonts/Microsoft/Perpetua.ttf'
p1261
sg21
g22
sbag7
(g8
g9
NtRp1262
(dp1263
g12
g13
sg14
S'Nueva Std'
p1264
sg16
I700
sg17
g168
sg18
g13
sg19
S'/Library/Fonts/NuevaStd-BoldCond.otf'
p1265
sg21
g22
sbag7
(g8
g9
NtRp1266
(dp1267
g12
g13
sg14
S'Cambria'
p1268
sg16
I700
sg17
g13
sg18
g13
sg19
S'/Library/Fonts/Microsoft/Cambria Bold.ttf'
p1269
sg21
g22
sbag7
(g8
g9
NtRp1270
(dp1271
g12
g94
sg14
S'Courier New'
p1272
sg16
I700
sg17
g13
sg18
g13
sg19
S'/Library/Fonts/Courier New Bold Italic.ttf'
p1273
sg21
g22
sbag7
(g8
g9
NtRp1274
(dp1275
g12
g13
sg14
S'Arial Rounded MT Bold'
p1276
sg16
I700
sg17
g13
sg18
g13
sg19
S'/Library/Fonts/Arial Rounded Bold.ttf'
p1277
sg21
g22
sbag7
(g8
g9
NtRp1278
(dp1279
g12
g13
sg14
S'Devanagari MT'
p1280
sg16
I700
sg17
g13
sg18
g13
sg19
S'/Library/Fonts/DevanagariMTBold.ttf'
p1281
sg21
g22
sbag7
(g8
g9
NtRp1282
(dp1283
g12
g13
sg14
S'Trajan Pro'
p1284
sg16
I700
sg17
g13
sg18
g13
sg19
S'/Library/Fonts/TrajanPro-Bold.otf'
p1285
sg21
g22
sbag7
(g8
g9
NtRp1286
(dp1287
g12
g94
sg14
S'Adobe Arabic'
p1288
sg16
I700
sg17
g13
sg18
g13
sg19
S'/Library/Fonts/AdobeArabic-BoldItalic.otf'
p1289
sg21
g22
sbag7
(g8
g9
NtRp1290
(dp1291
g12
g94
sg14
S'Arno Pro'
p1292
sg16
I700
sg17
g13
sg18
g13
sg19
S'/Library/Fonts/ArnoPro-SmbdItalicCaption.otf'
p1293
sg21
g22
sbag7
(g8
g9
NtRp1294
(dp1295
g12
g13
sg14
S'Kozuka Gothic Pr6N'
p1296
sg16
I400
sg17
g13
sg18
g13
sg19
S'/Library/Fonts/KozGoPr6N-Light.otf'
p1297
sg21
g22
sbag7
(g8
g9
NtRp1298
(dp1299
g12
g13
sg14
S'MingLiU-ExtB'
p1300
sg16
I400
sg17
g13
sg18
g13
sg19
S'/Library/Fonts/Microsoft/MingLiU-ExtB.ttf'
p1301
sg21
g22
sbag7
(g8
g9
NtRp1302
(dp1303
g12
g94
sg14
S'Franklin Gothic Medium'
p1304
sg16
I500
sg17
g13
sg18
g13
sg19
S'/Library/Fonts/Microsoft/Franklin Gothic Medium Italic.ttf'
p1305
sg21
g22
sbag7
(g8
g9
NtRp1306
(dp1307
g12
g13
sg14
S'Kozuka Mincho Pro'
p1308
sg16
I400
sg17
g13
sg18
g13
sg19
S'/Library/Fonts/KozMinPro-Medium.otf'
p1309
sg21
g22
sbag7
(g8
g9
NtRp1310
(dp1311
g12
g94
sg14
S'Constantia'
p1312
sg16
I400
sg17
g13
sg18
g13
sg19
S'/Library/Fonts/Microsoft/Constantia Italic.ttf'
p1313
sg21
g22
sbag7
(g8
g9
NtRp1314
(dp1315
g12
g13
sg14
S'InaiMathi'
p1316
sg16
I400
sg17
g13
sg18
g13
sg19
S'/Library/Fonts/InaiMathi.ttf'
p1317
sg21
g22
sbag7
(g8
g9
NtRp1318
(dp1319
g12
g13
sg14
S'Cambria'
p1320
sg16
I400
sg17
g13
sg18
g13
sg19
S'/Library/Fonts/Microsoft/Cambria.ttf'
p1321
sg21
g22
sbag7
(g8
g9
NtRp1322
(dp1323
g12
g13
sg14
S'Perpetua'
p1324
sg16
I700
sg17
g13
sg18
g13
sg19
S'/Library/Fonts/Microsoft/Perpetua Bold.ttf'
p1325
sg21
g22
sbag7
(g8
g9
NtRp1326
(dp1327
g12
g13
sg14
S'Batang'
p1328
sg16
I400
sg17
g13
sg18
g13
sg19
S'/Library/Fonts/Microsoft/Batang.ttf'
p1329
sg21
g22
sbag7
(g8
g9
NtRp1330
(dp1331
g12
g13
sg14
S'Kozuka Gothic Pro'
p1332
sg16
I400
sg17
g13
sg18
g13
sg19
S'/Library/Fonts/KozGoPro-Light.otf'
p1333
sg21
g22
sbag7
(g8
g9
NtRp1334
(dp1335
g12
g13
sg14
S'Bickham Script Pro'
p1336
sg16
I700
sg17
g13
sg18
g13
sg19
S'/Library/Fonts/BickhamScriptPro-Bold.otf'
p1337
sg21
g22
sbag7
(g8
g9
NtRp1338
(dp1339
g12
g13
sg14
S'Minion Pro'
p1340
sg16
I700
sg17
g13
sg18
g13
sg19
S'/Library/Fonts/MinionPro-Semibold.otf'
p1341
sg21
g22
sbag7
(g8
g9
NtRp1342
(dp1343
g12
g94
sg14
S'Letter Gothic Std'
p1344
sg16
I400
sg17
g13
sg18
g13
sg19
S'/Library/Fonts/LetterGothicStd-Slanted.otf'
p1345
sg21
g22
sbag7
(g8
g9
NtRp1346
(dp1347
g12
g13
sg14
S'DecoType Naskh'
p1348
sg16
I400
sg17
g13
sg18
g13
sg19
S'/Library/Fonts/DecoTypeNaskh.ttf'
p1349
sg21
g22
sbag7
(g8
g9
NtRp1350
(dp1351
g12
g94
sg14
S'Myriad Pro'
p1352
sg16
I700
sg17
g13
sg18
g13
sg19
S'/Library/Fonts/MyriadPro-BoldIt.otf'
p1353
sg21
g22
sbag7
(g8
g9
NtRp1354
(dp1355
g12
g13
sg14
S'HeadLineA'
p1356
sg16
I400
sg17
g13
sg18
g13
sg19
S'/Library/Fonts/HeadlineA.ttf'
p1357
sg21
g22
sbag7
(g8
g9
NtRp1358
(dp1359
g12
g13
sg14
S'.Keyboard'
p1360
sg16
I400
sg17
g13
sg18
g13
sg19
S'/System/Library/Fonts/Keyboard.ttf'
p1361
sg21
g22
sbag7
(g8
g9
NtRp1362
(dp1363
g12
g13
sg14
S'Hiragino Kaku Gothic Std'
p1364
sg16
I700
sg17
g13
sg18
g13
sg19
S'/Library/Fonts/\xe3\x83\x92\xe3\x83\xa9\xe3\x82\xad\xe3\x82\x99\xe3\x83\x8e\xe8\xa7\x92\xe3\x82\xb3\xe3\x82\x99 Std W8.otf'
p1365
sg21
g22
sbag7
(g8
g9
NtRp1366
(dp1367
g12
g13
sg14
S'Lucida Sans Unicode'
p1368
sg16
I400
sg17
g13
sg18
g13
sg19
S'/Library/Fonts/Microsoft/Lucida Sans Unicode.ttf'
p1369
sg21
g22
sbag7
(g8
g9
NtRp1370
(dp1371
g12
g13
sg14
S'Hiragino Sans GB'
p1372
sg16
I700
sg17
g13
sg18
g13
sg19
S'/Library/Fonts/Hiragino Sans GB W6.otf'
p1373
sg21
g22
sbag7
(g8
g9
NtRp1374
(dp1375
g12
g13
sg14
S'Geeza Pro'
p1376
sg16
I400
sg17
g13
sg18
g13
sg19
S'/System/Library/Fonts/Geeza Pro.ttf'
p1377
sg21
g22
sbag7
(g8
g9
NtRp1378
(dp1379
g12
g94
sg14
S'Consolas'
p1380
sg16
I700
sg17
g13
sg18
g13
sg19
S'/Library/Fonts/Microsoft/Consolas Bold Italic.ttf'
p1381
sg21
g22
sbag7
(g8
g9
NtRp1382
(dp1383
g12
g13
sg14
S'Microsoft Sans Serif'
p1384
sg16
I400
sg17
g13
sg18
g13
sg19
S'/Library/Fonts/Microsoft Sans Serif.ttf'
p1385
sg21
g22
sbag7
(g8
g9
NtRp1386
(dp1387
g12
g13
sg14
S'Lucida Console'
p1388
sg16
I400
sg17
g13
sg18
g13
sg19
S'/Library/Fonts/Microsoft/Lucida Console.ttf'
p1389
sg21
g22
sbag7
(g8
g9
NtRp1390
(dp1391
g12
g13
sg14
S'STIXIntegralsUpD'
p1392
sg16
I700
sg17
g13
sg18
g13
sg19
S'/Library/Fonts/STIXIntUpDBol.otf'
p1393
sg21
g22
sbag7
(g8
g9
NtRp1394
(dp1395
g12
g13
sg14
S'Myriad Pro'
p1396
sg16
I700
sg17
g13
sg18
g13
sg19
S'/Library/Fonts/MyriadPro-Bold.otf'
p1397
sg21
g22
sbag7
(g8
g9
NtRp1398
(dp1399
g12
g13
sg14
S'STIXGeneral'
p1400
sg16
I400
sg17
g13
sg18
g13
sg19
S'/Library/Fonts/STIXGeneral.otf'
p1401
sg21
g22
sbag7
(g8
g9
NtRp1402
(dp1403
g12
g13
sg14
S'Hiragino Kaku Gothic Pro'
p1404
sg16
I400
sg17
g13
sg18
g13
sg19
S'/Library/Fonts/\xe3\x83\x92\xe3\x83\xa9\xe3\x82\xad\xe3\x82\x99\xe3\x83\x8e\xe8\xa7\x92\xe3\x82\xb3\xe3\x82\x99 Pro W3.otf'
p1405
sg21
g22
sbag7
(g8
g9
NtRp1406
(dp1407
g12
g13
sg14
S'Trajan Pro'
p1408
sg16
I400
sg17
g13
sg18
g13
sg19
S'/Library/Fonts/TrajanPro-Regular.otf'
p1409
sg21
g22
sbag7
(g8
g9
NtRp1410
(dp1411
g12
g13
sg14
S'Yuppy TC'
p1412
sg16
I400
sg17
g13
sg18
g13
sg19
S'/Library/Fonts/YuppyTC-Regular.otf'
p1413
sg21
g22
sbag7
(g8
g9
NtRp1414
(dp1415
g12
g13
sg14
S'Apple Chancery'
p1416
sg16
I400
sg17
g13
sg18
g13
sg19
S'/Library/Fonts/Apple Chancery.ttf'
p1417
sg21
g22
sbag7
(g8
g9
NtRp1418
(dp1419
g12
g94
sg14
S'Arno Pro'
p1420
sg16
I700
sg17
g13
sg18
g13
sg19
S'/Library/Fonts/ArnoPro-BoldItalicDisplay.otf'
p1421
sg21
g22
sbag7
(g8
g9
NtRp1422
(dp1423
g12
g13
sg14
S'STIXIntegralsUpSm'
p1424
sg16
I700
sg17
g13
sg18
g13
sg19
S'/Library/Fonts/STIXIntUpSmBol.otf'
p1425
sg21
g22
sbag7
(g8
g9
NtRp1426
(dp1427
g12
g13
sg14
S'STIXSizeOneSym'
p1428
sg16
I700
sg17
g13
sg18
g13
sg19
S'/Library/Fonts/STIXSizOneSymBol.otf'
p1429
sg21
g22
sbag7
(g8
g9
NtRp1430
(dp1431
g12
g13
sg14
S'SimSun-ExtB'
p1432
sg16
I400
sg17
g13
sg18
g13
sg19
S'/Library/Fonts/Microsoft/SimSun-ExtB.ttf'
p1433
sg21
g22
sbag7
(g8
g9
NtRp1434
(dp1435
g12
g13
sg14
S'Palatino Linotype'
p1436
sg16
I400
sg17
g13
sg18
g13
sg19
S'/Library/Fonts/Microsoft/Palatino Linotype.ttf'
p1437
sg21
g22
sbag7
(g8
g9
NtRp1438
(dp1439
g12
g13
sg14
S'Adobe Hebrew'
p1440
sg16
I400
sg17
g13
sg18
g13
sg19
S'/Library/Fonts/AdobeHebrew-Regular.otf'
p1441
sg21
g22
sbag7
(g8
g9
NtRp1442
(dp1443
g12
g13
sg14
S'STIXSizeTwoSym'
p1444
sg16
I400
sg17
g13
sg18
g13
sg19
S'/Library/Fonts/STIXSizTwoSymReg.otf'
p1445
sg21
g22
sbag7
(g8
g9
NtRp1446
(dp1447
g12
g13
sg14
S'Weibei SC'
p1448
sg16
I700
sg17
g13
sg18
g13
sg19
S'/Library/Fonts/WeibeiSC-Bold.otf'
p1449
sg21
g22
sbag7
(g8
g9
NtRp1450
(dp1451
g12
g94
sg14
S'Arno Pro'
p1452
sg16
I400
sg17
g13
sg18
g13
sg19
S'/Library/Fonts/ArnoPro-ItalicDisplay.otf'
p1453
sg21
g22
sbag7
(g8
g9
NtRp1454
(dp1455
g12
g13
sg14
S'Georgia'
p1456
sg16
I700
sg17
g13
sg18
g13
sg19
S'/Library/Fonts/Georgia Bold.ttf'
p1457
sg21
g22
sbag7
(g8
g9
NtRp1458
(dp1459
g12
g94
sg14
S'Serto Jerusalem'
p1460
sg16
I400
sg17
g13
sg18
g13
sg19
S'/usr/X11/lib/X11/fonts/OTF/SyrCOMJerusalemItalic.otf'
p1461
sg21
g22
sbag7
(g8
g9
NtRp1462
(dp1463
g12
g13
sg14
S'Microsoft Tai Le'
p1464
sg16
I700
sg17
g13
sg18
g13
sg19
S'/Library/Fonts/Microsoft/TaiLeb.ttf'
p1465
sg21
g22
sbag7
(g8
g9
NtRp1466
(dp1467
g12
g94
sg14
S'Garamond Premier Pro'
p1468
sg16
I400
sg17
g13
sg18
g13
sg19
S'/Library/Fonts/GaramondPremrPro-It.otf'
p1469
sg21
g22
sbag7
(g8
g9
NtRp1470
(dp1471
g12
g13
sg14
S'STIXIntegralsUpD'
p1472
sg16
I400
sg17
g13
sg18
g13
sg19
S'/Library/Fonts/STIXIntUpDReg.otf'
p1473
sg21
g22
sbag7
(g8
g9
NtRp1474
(dp1475
g12
g13
sg14
S'Arno Pro'
p1476
sg16
I700
sg17
g13
sg18
g13
sg19
S'/Library/Fonts/ArnoPro-BoldSmText.otf'
p1477
sg21
g22
sbag7
(g8
g9
NtRp1478
(dp1479
g12
g94
sg14
S'Meiryo'
p1480
sg16
I700
sg17
g13
sg18
g13
sg19
S'/Library/Fonts/Microsoft/Meiryo Bold Italic.ttf'
p1481
sg21
g22
sbag7
(g8
g9
NtRp1482
(dp1483
g12
g13
sg14
S'Kozuka Gothic Pro'
p1484
sg16
I700
sg17
g13
sg18
g13
sg19
S'/Library/Fonts/KozGoPro-Bold.otf'
p1485
sg21
g22
sbag7
(g8
g9
NtRp1486
(dp1487
g12
g94
sg14
S'Candara'
p1488
sg16
I400
sg17
g13
sg18
g13
sg19
S'/Library/Fonts/Microsoft/Candara Italic.ttf'
p1489
sg21
g22
sbag7
(g8
g9
NtRp1490
(dp1491
g12
g13
sg14
S'Kozuka Gothic Pro'
p1492
sg16
I400
sg17
g13
sg18
g13
sg19
S'/Library/Fonts/KozGoPro-Medium.otf'
p1493
sg21
g22
sbag7
(g8
g9
NtRp1494
(dp1495
g12
g13
sg14
S'Apple SD Gothic Neo'
p1496
sg16
I200
sg17
g13
sg18
g13
sg19
S'/Library/Fonts/AppleSDGothicNeo-UltraLight.otf'
p1497
sg21
g22
sbag7
(g8
g9
NtRp1498
(dp1499
g12
g13
sg14
S'Arial Unicode MS'
p1500
sg16
I400
sg17
g13
sg18
g13
sg19
S'/Library/Fonts/Arial Unicode.ttf'
p1501
sg21
g22
sbag7
(g8
g9
NtRp1502
(dp1503
g12
g13
sg14
S'Adobe Heiti Std'
p1504
sg16
I400
sg17
g13
sg18
g13
sg19
S'/Library/Fonts/AdobeHeitiStd-Regular.otf'
p1505
sg21
g22
sbag7
(g8
g9
NtRp1506
(dp1507
g12
g13
sg14
S'Apple SD Gothic Neo'
p1508
sg16
I800
sg17
g13
sg18
g13
sg19
S'/Library/Fonts/AppleSDGothicNeo-Heavy.otf'
p1509
sg21
g22
sbag7
(g8
g9
NtRp1510
(dp1511
g12
g13
sg14
S'Times New Roman'
p1512
sg16
I700
sg17
g13
sg18
g13
sg19
S'/Library/Fonts/Microsoft/Times New Roman Bold.ttf'
p1513
sg21
g22
sbag7
(g8
g9
NtRp1514
(dp1515
g12
g13
sg14
S'Kozuka Mincho Pr6N'
p1516
sg16
I400
sg17
g13
sg18
g13
sg19
S'/Library/Fonts/KozMinPr6N-Regular.otf'
p1517
sg21
g22
sbag7
(g8
g9
NtRp1518
(dp1519
g12
g13
sg14
S'Adobe Fan Heiti Std'
p1520
sg16
I700
sg17
g13
sg18
g13
sg19
S'/Library/Fonts/AdobeFanHeitiStd-Bold.otf'
p1521
sg21
g22
sbag7
(g8
g9
NtRp1522
(dp1523
g12
g94
sg14
S'Arno Pro'
p1524
sg16
I200
sg17
g13
sg18
g13
sg19
S'/Library/Fonts/ArnoPro-LightItalicDisplay.otf'
p1525
sg21
g22
sbag7
(g8
g9
NtRp1526
(dp1527
g12
g13
sg14
S'Serto Jerusalem Outline'
p1528
sg16
I400
sg17
g13
sg18
g13
sg19
S'/usr/X11/lib/X11/fonts/OTF/SyrCOMJerusalemOutline.otf'
p1529
sg21
g22
sbag7
(g8
g9
NtRp1530
(dp1531
g12
g13
sg14
S'Arno Pro'
p1532
sg16
I700
sg17
g13
sg18
g13
sg19
S'/Library/Fonts/ArnoPro-BoldCaption.otf'
p1533
sg21
g22
sbag7
(g8
g9
NtRp1534
(dp1535
g12
g13
sg14
S'STIXIntegralsD'
p1536
sg16
I700
sg17
g13
sg18
g13
sg19
S'/Library/Fonts/STIXIntDBol.otf'
p1537
sg21
g22
sbag7
(g8
g9
NtRp1538
(dp1539
g12
g13
sg14
S'Chaparral Pro'
p1540
sg16
I700
sg17
g13
sg18
g13
sg19
S'/Library/Fonts/ChaparralPro-Bold.otf'
p1541
sg21
g22
sbag7
(g8
g9
NtRp1542
(dp1543
g12
g13
sg14
S'DIN Alternate'
p1544
sg16
I700
sg17
g13
sg18
g13
sg19
S'/Library/Fonts/DIN Alternate Bold.ttf'
p1545
sg21
g22
sbag7
(g8
g9
NtRp1546
(dp1547
g12
g13
sg14
S'Courier New'
p1548
sg16
I400
sg17
g13
sg18
g13
sg19
S'/Library/Fonts/Courier New.ttf'
p1549
sg21
g22
sbag7
(g8
g9
NtRp1550
(dp1551
g12
g94
sg14
S'Arial Narrow'
p1552
sg16
I700
sg17
g168
sg18
g13
sg19
S'/Library/Fonts/Arial Narrow Bold Italic.ttf'
p1553
sg21
g22
sbag7
(g8
g9
NtRp1554
(dp1555
g12
g13
sg14
S'Serto Jerusalem'
p1556
sg16
I400
sg17
g13
sg18
g13
sg19
S'/usr/X11/lib/X11/fonts/OTF/SyrCOMJerusalem.otf'
p1557
sg21
g22
sbag7
(g8
g9
NtRp1558
(dp1559
g12
g13
sg14
S'Zapfino'
p1560
sg16
I400
sg17
g13
sg18
g13
sg19
S'/Library/Fonts/Zapfino.ttf'
p1561
sg21
g22
sbag7
(g8
g9
NtRp1562
(dp1563
g12
g13
sg14
S'Krungthep'
p1564
sg16
I400
sg17
g13
sg18
g13
sg19
S'/Library/Fonts/Krungthep.ttf'
p1565
sg21
g22
sbag7
(g8
g9
NtRp1566
(dp1567
g12
g13
sg14
S'Apple SD Gothic Neo'
p1568
sg16
I700
sg17
g13
sg18
g13
sg19
S'/Library/Fonts/AppleSDGothicNeo-ExtraBold.otf'
p1569
sg21
g22
sbag7
(g8
g9
NtRp1570
(dp1571
g12
g13
sg14
S'Mongolian Baiti'
p1572
sg16
I400
sg17
g13
sg18
g13
sg19
S'/Library/Fonts/Microsoft/monbaiti.ttf'
p1573
sg21
g22
sbag7
(g8
g9
NtRp1574
(dp1575
g12
g13
sg14
S'Franklin Gothic Medium'
p1576
sg16
I500
sg17
g13
sg18
g13
sg19
S'/Library/Fonts/Microsoft/Franklin Gothic Medium.ttf'
p1577
sg21
g22
sbag7
(g8
g9
NtRp1578
(dp1579
g12
g94
sg14
S'Garamond Premier Pro'
p1580
sg16
I700
sg17
g13
sg18
g13
sg19
S'/Library/Fonts/GaramondPremrPro-SmbdIt.otf'
p1581
sg21
g22
sbag7
(g8
g9
NtRp1582
(dp1583
g12
g94
sg14
S'Cooper Std'
p1584
sg16
I900
sg17
g13
sg18
g13
sg19
S'/Library/Fonts/CooperBlackStd-Italic.otf'
p1585
sg21
g22
sbag7
(g8
g9
NtRp1586
(dp1587
g12
g13
sg14
S'Minion Pro'
p1588
sg16
I700
sg17
g168
sg18
g13
sg19
S'/Library/Fonts/MinionPro-BoldCn.otf'
p1589
sg21
g22
sbag7
(g8
g9
NtRp1590
(dp1591
g12
g13
sg14
S'Hiragino Kaku Gothic ProN'
p1592
sg16
I400
sg17
g13
sg18
g13
sg19
S'/System/Library/Fonts/\xe3\x83\x92\xe3\x83\xa9\xe3\x82\xad\xe3\x82\x99\xe3\x83\x8e\xe8\xa7\x92\xe3\x82\xb3\xe3\x82\x99 ProN W3.otf'
p1593
sg21
g22
sbag7
(g8
g9
NtRp1594
(dp1595
g12
g13
sg14
S'STHeiti'
p1596
sg16
I400
sg17
g13
sg18
g13
sg19
S'/Library/Fonts/\xe5\x8d\x8e\xe6\x96\x87\xe9\xbb\x91\xe4\xbd\x93.ttf'
p1597
sg21
g22
sbag7
(g8
g9
NtRp1598
(dp1599
g12
g13
sg14
S'Estrangelo Midyat'
p1600
sg16
I400
sg17
g13
sg18
g13
sg19
S'/usr/X11/lib/X11/fonts/OTF/SyrCOMMidyat.otf'
p1601
sg21
g22
sbag7
(g8
g9
NtRp1602
(dp1603
g12
g13
sg14
S'Apple Braille'
p1604
sg16
I400
sg17
g13
sg18
g13
sg19
S'/System/Library/Fonts/Apple Braille Outline 8 Dot.ttf'
p1605
sg21
g22
sbag7
(g8
g9
NtRp1606
(dp1607
g12
g13
sg14
S'Kozuka Mincho Pro'
p1608
sg16
I400
sg17
g13
sg18
g13
sg19
S'/Library/Fonts/KozMinPro-Light.otf'
p1609
sg21
g22
sbag7
(g8
g9
NtRp1610
(dp1611
g12
g13
sg14
S'Bickham Script Pro'
p1612
sg16
I700
sg17
g13
sg18
g13
sg19
S'/Library/Fonts/BickhamScriptPro-Semibold.otf'
p1613
sg21
g22
sbag7
(g8
g9
NtRp1614
(dp1615
g12
g94
sg14
S'Corbel'
p1616
sg16
I400
sg17
g13
sg18
g13
sg19
S'/Library/Fonts/Microsoft/Corbel Italic.ttf'
p1617
sg21
g22
sbag7
(g8
g9
NtRp1618
(dp1619
g12
g13
sg14
S'Palatino Linotype'
p1620
sg16
I700
sg17
g13
sg18
g13
sg19
S'/Library/Fonts/Microsoft/Palatino Linotype Bold.ttf'
p1621
sg21
g22
sbag7
(g8
g9
NtRp1622
(dp1623
g12
g94
sg14
S'Adobe Garamond Pro'
p1624
sg16
I400
sg17
g13
sg18
g13
sg19
S'/Library/Fonts/AGaramondPro-Italic.otf'
p1625
sg21
g22
sbag7
(g8
g9
NtRp1626
(dp1627
g12
g13
sg14
S'STIXVariants'
p1628
sg16
I700
sg17
g13
sg18
g13
sg19
S'/Library/Fonts/STIXVarBol.otf'
p1629
sg21
g22
sbag7
(g8
g9
NtRp1630
(dp1631
g12
g13
sg14
S'Hiragino Kaku Gothic StdN'
p1632
sg16
I700
sg17
g13
sg18
g13
sg19
S'/Library/Fonts/\xe3\x83\x92\xe3\x83\xa9\xe3\x82\xad\xe3\x82\x99\xe3\x83\x8e\xe8\xa7\x92\xe3\x82\xb3\xe3\x82\x99 StdN W8.otf'
p1633
sg21
g22
sbag7
(g8
g9
NtRp1634
(dp1635
g12
g13
sg14
S'MS Gothic'
p1636
sg16
I400
sg17
g13
sg18
g13
sg19
S'/Library/Fonts/Microsoft/MS Gothic.ttf'
p1637
sg21
g22
sbag7
(g8
g9
NtRp1638
(dp1639
g12
g13
sg14
S'MS PMincho'
p1640
sg16
I400
sg17
g13
sg18
g13
sg19
S'/Library/Fonts/Microsoft/MS PMincho.ttf'
p1641
sg21
g22
sbag7
(g8
g9
NtRp1642
(dp1643
g12
g13
sg14
S'STIXIntegralsUp'
p1644
sg16
I700
sg17
g13
sg18
g13
sg19
S'/Library/Fonts/STIXIntUpBol.otf'
p1645
sg21
g22
sbag7
(g8
g9
NtRp1646
(dp1647
g12
g13
sg14
S'Wawati TC'
p1648
sg16
I400
sg17
g13
sg18
g13
sg19
S'/Library/Fonts/WawaTC-Regular.otf'
p1649
sg21
g22
sbag7
(g8
g9
NtRp1650
(dp1651
g12
g13
sg14
S'MS Reference Sans Serif'
p1652
sg16
I400
sg17
g13
sg18
g13
sg19
S'/Library/Fonts/Microsoft/MS Reference Sans Serif.ttf'
p1653
sg21
g22
sbag7
(g8
g9
NtRp1654
(dp1655
g12
g13
sg14
S'STIXSizeTwoSym'
p1656
sg16
I700
sg17
g13
sg18
g13
sg19
S'/Library/Fonts/STIXSizTwoSymBol.otf'
p1657
sg21
g22
sbag7
(g8
g9
NtRp1658
(dp1659
g12
g13
sg14
S'Hiragino Mincho Pro'
p1660
sg16
I400
sg17
g13
sg18
g13
sg19
S'/Library/Fonts/\xe3\x83\x92\xe3\x83\xa9\xe3\x82\xad\xe3\x82\x99\xe3\x83\x8e\xe6\x98\x8e\xe6\x9c\x9d Pro W3.otf'
p1661
sg21
g22
sbag7
(g8
g9
NtRp1662
(dp1663
g12
g13
sg14
S'Corbel'
p1664
sg16
I400
sg17
g13
sg18
g13
sg19
S'/Library/Fonts/Microsoft/Corbel.ttf'
p1665
sg21
g22
sbag7
(g8
g9
NtRp1666
(dp1667
g12
g13
sg14
S'Adobe Caslon Pro'
p1668
sg16
I700
sg17
g13
sg18
g13
sg19
S'/Library/Fonts/ACaslonPro-Semibold.otf'
p1669
sg21
g22
sbag7
(g8
g9
NtRp1670
(dp1671
g12
g13
sg14
S'Eccentric Std'
p1672
sg16
I400
sg17
g13
sg18
g13
sg19
S'/Library/Fonts/EccentricStd.otf'
p1673
sg21
g22
sbag7
(g8
g9
NtRp1674
(dp1675
g12
g13
sg14
S'SymbolProp BT'
p1676
sg16
I400
sg17
g13
sg18
g13
sg19
S'/Library/Fonts/tt9830z_.ttf'
p1677
sg21
g22
sbag7
(g8
g9
NtRp1678
(dp1679
g12
g13
sg14
S'Estrangelo Nisibin Outline'
p1680
sg16
I400
sg17
g13
sg18
g13
sg19
S'/usr/X11/lib/X11/fonts/OTF/SyrCOMNisibinOutline.otf'
p1681
sg21
g22
sbag7
(g8
g9
NtRp1682
(dp1683
g12
g13
sg14
S'SimSun'
p1684
sg16
I400
sg17
g13
sg18
g13
sg19
S'/Library/Fonts/Microsoft/SimSun.ttf'
p1685
sg21
g22
sbag7
(g8
g9
NtRp1686
(dp1687
g12
g13
sg14
S'Apple Braille'
p1688
sg16
I400
sg17
g13
sg18
g13
sg19
S'/System/Library/Fonts/Apple Braille Pinpoint 8 Dot.ttf'
p1689
sg21
g22
sbag7
(g8
g9
NtRp1690
(dp1691
g12
g94
sg14
S'Georgia'
p1692
sg16
I400
sg17
g13
sg18
g13
sg19
S'/Library/Fonts/Georgia Italic.ttf'
p1693
sg21
g22
sbag7
(g8
g9
NtRp1694
(dp1695
g12
g13
sg14
S'Apple Braille'
p1696
sg16
I400
sg17
g13
sg18
g13
sg19
S'/System/Library/Fonts/Apple Braille Outline 6 Dot.ttf'
p1697
sg21
g22
sbag7
(g8
g9
NtRp1698
(dp1699
g12
g13
sg14
S'Adobe Hebrew'
p1700
sg16
I700
sg17
g13
sg18
g13
sg19
S'/Library/Fonts/AdobeHebrew-Bold.otf'
p1701
sg21
g22
sbag7
(g8
g9
NtRp1702
(dp1703
g12
g94
sg14
S'Gill Sans MT'
p1704
sg16
I700
sg17
g13
sg18
g13
sg19
S'/Library/Fonts/Microsoft/Gill Sans MT Bold Italic.ttf'
p1705
sg21
g22
sbag7
(g8
g9
NtRp1706
(dp1707
g12
g13
sg14
S'Serto Kharput'
p1708
sg16
I400
sg17
g13
sg18
g13
sg19
S'/usr/X11/lib/X11/fonts/OTF/SyrCOMKharput.otf'
p1709
sg21
g22
sbag7
(g8
g9
NtRp1710
(dp1711
g12
g13
sg14
S'Adobe Garamond Pro'
p1712
sg16
I400
sg17
g13
sg18
g13
sg19
S'/Library/Fonts/AGaramondPro-Regular.otf'
p1713
sg21
g22
sbag7
(g8
g9
NtRp1714
(dp1715
g12
g94
sg14
S'Arno Pro'
p1716
sg16
I700
sg17
g13
sg18
g13
sg19
S'/Library/Fonts/ArnoPro-BoldItalicSubhead.otf'
p1717
sg21
g22
sbag7
(g8
g9
NtRp1718
(dp1719
g12
g13
sg14
S'Chaparral Pro'
p1720
sg16
I400
sg17
g13
sg18
g13
sg19
S'/Library/Fonts/ChaparralPro-Regular.otf'
p1721
sg21
g22
sbag7
(g8
g9
NtRp1722
(dp1723
g12
g13
sg14
S'LastResort'
p1724
sg16
I400
sg17
g13
sg18
g13
sg19
S'/System/Library/Fonts/LastResort.ttf'
p1725
sg21
g22
sbag7
(g8
g9
NtRp1726
(dp1727
g12
g13
sg14
S'Apple SD Gothic Neo'
p1728
sg16
I400
sg17
g13
sg18
g13
sg19
S'/Library/Fonts/AppleSDGothicNeo-Thin.otf'
p1729
sg21
g22
sbag7
(g8
g9
NtRp1730
(dp1731
g12
g13
sg14
S'Arno Pro'
p1732
sg16
I700
sg17
g13
sg18
g13
sg19
S'/Library/Fonts/ArnoPro-SmbdCaption.otf'
p1733
sg21
g22
sbag7
(g8
g9
NtRp1734
(dp1735
g12
g13
sg14
S'Geeza Pro'
p1736
sg16
I700
sg17
g13
sg18
g13
sg19
S'/System/Library/Fonts/Geeza Pro Bold.ttf'
p1737
sg21
g22
sbag7
(g8
g9
NtRp1738
(dp1739
g12
g13
sg14
S'STIXGeneral'
p1740
sg16
I700
sg17
g13
sg18
g13
sg19
S'/Library/Fonts/STIXGeneralBol.otf'
p1741
sg21
g22
sbag7
(g8
g9
NtRp1742
(dp1743
g12
g94
sg14
S'Constantia'
p1744
sg16
I700
sg17
g13
sg18
g13
sg19
S'/Library/Fonts/Microsoft/Constantia Bold Italic.ttf'
p1745
sg21
g22
sbag7
(g8
g9
NtRp1746
(dp1747
g12
g13
sg14
S'Franklin Gothic Book'
p1748
sg16
I400
sg17
g13
sg18
g13
sg19
S'/Library/Fonts/Microsoft/Franklin Gothic Book.ttf'
p1749
sg21
g22
sbag7
(g8
g9
NtRp1750
(dp1751
g12
g13
sg14
S'Osaka'
p1752
sg16
I400
sg17
g13
sg18
g13
sg19
S'/Library/Fonts/OsakaMono.ttf'
p1753
sg21
g22
sbag7
(g8
g9
NtRp1754
(dp1755
g12
g13
sg14
S'Kozuka Mincho Pr6N'
p1756
sg16
I400
sg17
g13
sg18
g13
sg19
S'/Library/Fonts/KozMinPr6N-ExtraLight.otf'
p1757
sg21
g22
sbag7
(g8
g9
NtRp1758
(dp1759
g12
g94
sg14
S'STIXGeneral'
p1760
sg16
I700
sg17
g13
sg18
g13
sg19
S'/Library/Fonts/STIXGeneralBolIta.otf'
p1761
sg21
g22
sbag7
(g8
g9
NtRp1762
(dp1763
g12
g13
sg14
S'Trebuchet MS'
p1764
sg16
I400
sg17
g13
sg18
g13
sg19
S'/Library/Fonts/Trebuchet MS.ttf'
p1765
sg21
g22
sbag7
(g8
g9
NtRp1766
(dp1767
g12
g13
sg14
S'Courier New'
p1768
sg16
I700
sg17
g13
sg18
g13
sg19
S'/Library/Fonts/Courier New Bold.ttf'
p1769
sg21
g22
sbag7
(g8
g9
NtRp1770
(dp1771
g12
g13
sg14
S'Adobe Fangsong Std'
p1772
sg16
I400
sg17
g13
sg18
g13
sg19
S'/Library/Fonts/AdobeFangsongStd-Regular.otf'
p1773
sg21
g22
sbag7
(g8
g9
NtRp1774
(dp1775
g12
g13
sg14
S'Herculanum'
p1776
sg16
I400
sg17
g13
sg18
g13
sg19
S'/Library/Fonts/Herculanum.ttf'
p1777
sg21
g22
sbag7
(g8
g9
NtRp1778
(dp1779
g12
g94
sg14
S'Minion Pro'
p1780
sg16
I700
sg17
g13
sg18
g13
sg19
S'/Library/Fonts/MinionPro-SemiboldIt.otf'
p1781
sg21
g22
sbag7
(g8
g9
NtRp1782
(dp1783
g12
g13
sg14
S'Estrangelo TurAbdin'
p1784
sg16
I400
sg17
g13
sg18
g13
sg19
S'/usr/X11/lib/X11/fonts/OTF/SyrCOMTurAbdin.otf'
p1785
sg21
g22
sbag7
(g8
g9
NtRp1786
(dp1787
g12
g13
sg14
S'Wingdings 2'
p1788
sg16
I400
sg17
g13
sg18
g13
sg19
S'/Library/Fonts/Wingdings 2.ttf'
p1789
sg21
g22
sbag7
(g8
g9
NtRp1790
(dp1791
g12
g13
sg14
S'Lithos Pro'
p1792
sg16
I900
sg17
g13
sg18
g13
sg19
S'/Library/Fonts/LithosPro-Black.otf'
p1793
sg21
g22
sbag7
(g8
g9
NtRp1794
(dp1795
g12
g13
sg14
S'Tahoma'
p1796
sg16
I400
sg17
g13
sg18
g13
sg19
S'/Library/Fonts/Tahoma.ttf'
p1797
sg21
g22
sbag7
(g8
g9
NtRp1798
(dp1799
g12
g13
sg14
S'Gill Sans MT'
p1800
sg16
I700
sg17
g13
sg18
g13
sg19
S'/Library/Fonts/Microsoft/Gill Sans MT Bold.ttf'
p1801
sg21
g22
sbag7
(g8
g9
NtRp1802
(dp1803
g12
g13
sg14
S'Hiragino Maru Gothic ProN'
p1804
sg16
I400
sg17
g13
sg18
g13
sg19
S'/Library/Fonts/\xe3\x83\x92\xe3\x83\xa9\xe3\x82\xad\xe3\x82\x99\xe3\x83\x8e\xe4\xb8\xb8\xe3\x82\xb3\xe3\x82\x99 ProN W4.otf'
p1805
sg21
g22
sbag7
(g8
g9
NtRp1806
(dp1807
g12
g94
sg14
S'Palatino Linotype'
p1808
sg16
I400
sg17
g13
sg18
g13
sg19
S'/Library/Fonts/Microsoft/Palatino Linotype Italic.ttf'
p1809
sg21
g22
sbag7
(g8
g9
NtRp1810
(dp1811
g12
g13
sg14
S'STIXSizeOneSym'
p1812
sg16
I400
sg17
g13
sg18
g13
sg19
S'/Library/Fonts/STIXSizOneSymReg.otf'
p1813
sg21
g22
sbag7
(g8
g9
NtRp1814
(dp1815
g12
g94
sg14
S'Orator Std'
p1816
sg16
I400
sg17
g13
sg18
g13
sg19
S'/Library/Fonts/OratorStd-Slanted.otf'
p1817
sg21
g22
sbag7
(g8
g9
NtRp1818
(dp1819
g12
g13
sg14
S'MS Mincho'
p1820
sg16
I400
sg17
g13
sg18
g13
sg19
S'/Library/Fonts/Microsoft/MS Mincho.ttf'
p1821
sg21
g22
sbag7
(g8
g9
NtRp1822
(dp1823
g12
g13
sg14
S'Microsoft Tai Le'
p1824
sg16
I400
sg17
g13
sg18
g13
sg19
S'/Library/Fonts/Microsoft/taile.ttf'
p1825
sg21
g22
sbag7
(g8
g9
NtRp1826
(dp1827
g12
g13
sg14
S'STHeiti'
p1828
sg16
I400
sg17
g13
sg18
g13
sg19
S'/Library/Fonts/\xe5\x8d\x8e\xe6\x96\x87\xe7\xbb\x86\xe9\xbb\x91.ttf'
p1829
sg21
g22
sbag7
(g8
g9
NtRp1830
(dp1831
g12
g94
sg14
S'Meiryo'
p1832
sg16
I400
sg17
g13
sg18
g13
sg19
S'/Library/Fonts/Microsoft/Meiryo Italic.ttf'
p1833
sg21
g22
sbag7
(g8
g9
NtRp1834
(dp1835
g12
g13
sg14
S'Kozuka Mincho Pro'
p1836
sg16
I400
sg17
g13
sg18
g13
sg19
S'/Library/Fonts/KozMinPro-ExtraLight.otf'
p1837
sg21
g22
sbag7
(g8
g9
NtRp1838
(dp1839
g12
g13
sg14
S'Apple Symbols'
p1840
sg16
I400
sg17
g13
sg18
g13
sg19
S'/System/Library/Fonts/Apple Symbols.ttf'
p1841
sg21
g22
sbag7
(g8
g9
NtRp1842
(dp1843
g12
g13
sg14
S'Hobo Std'
p1844
sg16
I500
sg17
g13
sg18
g13
sg19
S'/Library/Fonts/HoboStd.otf'
p1845
sg21
g22
sbag7
(g8
g9
NtRp1846
(dp1847
g12
g13
sg14
S'Kozuka Mincho Pr6N'
p1848
sg16
I400
sg17
g13
sg18
g13
sg19
S'/Library/Fonts/KozMinPr6N-Medium.otf'
p1849
sg21
g22
sbag7
(g8
g9
NtRp1850
(dp1851
g12
g13
sg14
S'Apple LiGothic'
p1852
sg16
I500
sg17
g13
sg18
g13
sg19
S'/Library/Fonts/Apple LiGothic Medium.ttf'
p1853
sg21
g22
sbag7
(g8
g9
NtRp1854
(dp1855
g12
g13
sg14
S'Calibri'
p1856
sg16
I400
sg17
g13
sg18
g13
sg19
S'/Library/Fonts/Microsoft/Calibri.ttf'
p1857
sg21
g22
sbag7
(g8
g9
NtRp1858
(dp1859
g12
g13
sg14
S'Devanagari MT'
p1860
sg16
I400
sg17
g13
sg18
g13
sg19
S'/Library/Fonts/DevanagariMT.ttf'
p1861
sg21
g22
sbag7
(g8
g9
NtRp1862
(dp1863
g12
g13
sg14
S'STIXIntegralsD'
p1864
sg16
I400
sg17
g13
sg18
g13
sg19
S'/Library/Fonts/STIXIntDReg.otf'
p1865
sg21
g22
sbag7
(g8
g9
NtRp1866
(dp1867
g12
g13
sg14
S'GungSeo'
p1868
sg16
I400
sg17
g13
sg18
g13
sg19
S'/Library/Fonts/Gungseouche.ttf'
p1869
sg21
g22
sbag7
(g8
g9
NtRp1870
(dp1871
g12
g13
sg14
S'Kozuka Gothic Pro'
p1872
sg16
I400
sg17
g13
sg18
g13
sg19
S'/Library/Fonts/KozGoPro-Regular.otf'
p1873
sg21
g22
sbag7
(g8
g9
NtRp1874
(dp1875
g12
g13
sg14
S'Sathu'
p1876
sg16
I400
sg17
g13
sg18
g13
sg19
S'/Library/Fonts/Sathu.ttf'
p1877
sg21
g22
sbag7
(g8
g9
NtRp1878
(dp1879
g12
g13
sg14
S'Gujarati MT'
p1880
sg16
I400
sg17
g13
sg18
g13
sg19
S'/Library/Fonts/GujaratiMT.ttf'
p1881
sg21
g22
sbag7
(g8
g9
NtRp1882
(dp1883
g12
g13
sg14
S'Apple SD Gothic Neo'
p1884
sg16
I500
sg17
g13
sg18
g13
sg19
S'/Library/Fonts/AppleSDGothicNeo-Medium.otf'
p1885
sg21
g22
sbasS'defaultFamily'
p1886
(dp1887
S'afm'
p1888
S'Helvetica'
p1889
sS'ttf'
p1890
S'Bitstream Vera Sans'
p1891
ssS'ttffiles'
p1892
(lp1893
S'/usr/local/bin/homebrew/Cellar/python/2.7.6/Frameworks/Python.framework/Versions/2.7/lib/python2.7/site-packages/matplotlib/mpl-data/fonts/ttf/cmb10.ttf'
p1894
aS'/usr/local/bin/homebrew/Cellar/python/2.7.6/Frameworks/Python.framework/Versions/2.7/lib/python2.7/site-packages/matplotlib/mpl-data/fonts/ttf/cmmi10.ttf'
p1895
aS'/usr/local/bin/homebrew/Cellar/python/2.7.6/Frameworks/Python.framework/Versions/2.7/lib/python2.7/site-packages/matplotlib/mpl-data/fonts/ttf/STIXSizOneSymBol.ttf'
p1896
aS'/usr/local/bin/homebrew/Cellar/python/2.7.6/Frameworks/Python.framework/Versions/2.7/lib/python2.7/site-packages/matplotlib/mpl-data/fonts/ttf/STIXNonUni.ttf'
p1897
aS'/usr/local/bin/homebrew/Cellar/python/2.7.6/Frameworks/Python.framework/Versions/2.7/lib/python2.7/site-packages/matplotlib/mpl-data/fonts/ttf/cmss10.ttf'
p1898
aS'/usr/local/bin/homebrew/Cellar/python/2.7.6/Frameworks/Python.framework/Versions/2.7/lib/python2.7/site-packages/matplotlib/mpl-data/fonts/ttf/VeraMono.ttf'
p1899
aS'/usr/local/bin/homebrew/Cellar/python/2.7.6/Frameworks/Python.framework/Versions/2.7/lib/python2.7/site-packages/matplotlib/mpl-data/fonts/ttf/STIXSizThreeSymReg.ttf'
p1900
aS'/usr/local/bin/homebrew/Cellar/python/2.7.6/Frameworks/Python.framework/Versions/2.7/lib/python2.7/site-packages/matplotlib/mpl-data/fonts/ttf/cmex10.ttf'
p1901
aS'/usr/local/bin/homebrew/Cellar/python/2.7.6/Frameworks/Python.framework/Versions/2.7/lib/python2.7/site-packages/matplotlib/mpl-data/fonts/ttf/cmsy10.ttf'
p1902
aS'/usr/local/bin/homebrew/Cellar/python/2.7.6/Frameworks/Python.framework/Versions/2.7/lib/python2.7/site-packages/matplotlib/mpl-data/fonts/ttf/STIXSizFiveSymReg.ttf'
p1903
aS'/usr/local/bin/homebrew/Cellar/python/2.7.6/Frameworks/Python.framework/Versions/2.7/lib/python2.7/site-packages/matplotlib/mpl-data/fonts/ttf/cmr10.ttf'
p1904
aS'/usr/local/bin/homebrew/Cellar/python/2.7.6/Frameworks/Python.framework/Versions/2.7/lib/python2.7/site-packages/matplotlib/mpl-data/fonts/ttf/VeraSe.ttf'
p1905
aS'/usr/local/bin/homebrew/Cellar/python/2.7.6/Frameworks/Python.framework/Versions/2.7/lib/python2.7/site-packages/matplotlib/mpl-data/fonts/ttf/STIXSizFourSymReg.ttf'
p1906
aS'/usr/local/bin/homebrew/Cellar/python/2.7.6/Frameworks/Python.framework/Versions/2.7/lib/python2.7/site-packages/matplotlib/mpl-data/fonts/ttf/cmtt10.ttf'
p1907
aS'/usr/local/bin/homebrew/Cellar/python/2.7.6/Frameworks/Python.framework/Versions/2.7/lib/python2.7/site-packages/matplotlib/mpl-data/fonts/ttf/STIXSizTwoSymReg.ttf'
p1908
aS'/usr/local/bin/homebrew/Cellar/python/2.7.6/Frameworks/Python.framework/Versions/2.7/lib/python2.7/site-packages/matplotlib/mpl-data/fonts/ttf/VeraBI.ttf'
p1909
aS'/usr/local/bin/homebrew/Cellar/python/2.7.6/Frameworks/Python.framework/Versions/2.7/lib/python2.7/site-packages/matplotlib/mpl-data/fonts/ttf/STIXSizFourSymBol.ttf'
p1910
aS'/usr/local/bin/homebrew/Cellar/python/2.7.6/Frameworks/Python.framework/Versions/2.7/lib/python2.7/site-packages/matplotlib/mpl-data/fonts/ttf/VeraIt.ttf'
p1911
aS'/usr/local/bin/homebrew/Cellar/python/2.7.6/Frameworks/Python.framework/Versions/2.7/lib/python2.7/site-packages/matplotlib/mpl-data/fonts/ttf/STIXGeneralBolIta.ttf'
p1912
aS'/usr/local/bin/homebrew/Cellar/python/2.7.6/Frameworks/Python.framework/Versions/2.7/lib/python2.7/site-packages/matplotlib/mpl-data/fonts/ttf/STIXGeneral.ttf'
p1913
aS'/usr/local/bin/homebrew/Cellar/python/2.7.6/Frameworks/Python.framework/Versions/2.7/lib/python2.7/site-packages/matplotlib/mpl-data/fonts/ttf/STIXNonUniIta.ttf'
p1914
aS'/usr/local/bin/homebrew/Cellar/python/2.7.6/Frameworks/Python.framework/Versions/2.7/lib/python2.7/site-packages/matplotlib/mpl-data/fonts/ttf/STIXGeneralBol.ttf'
p1915
aS'/usr/local/bin/homebrew/Cellar/python/2.7.6/Frameworks/Python.framework/Versions/2.7/lib/python2.7/site-packages/matplotlib/mpl-data/fonts/ttf/STIXSizTwoSymBol.ttf'
p1916
aS'/usr/local/bin/homebrew/Cellar/python/2.7.6/Frameworks/Python.framework/Versions/2.7/lib/python2.7/site-packages/matplotlib/mpl-data/fonts/ttf/STIXNonUniBol.ttf'
p1917
aS'/usr/local/bin/homebrew/Cellar/python/2.7.6/Frameworks/Python.framework/Versions/2.7/lib/python2.7/site-packages/matplotlib/mpl-data/fonts/ttf/STIXSizThreeSymBol.ttf'
p1918
aS'/usr/local/bin/homebrew/Cellar/python/2.7.6/Frameworks/Python.framework/Versions/2.7/lib/python2.7/site-packages/matplotlib/mpl-data/fonts/ttf/VeraMoBd.ttf'
p1919
aS'/usr/local/bin/homebrew/Cellar/python/2.7.6/Frameworks/Python.framework/Versions/2.7/lib/python2.7/site-packages/matplotlib/mpl-data/fonts/ttf/VeraMoIt.ttf'
p1920
aS'/usr/local/bin/homebrew/Cellar/python/2.7.6/Frameworks/Python.framework/Versions/2.7/lib/python2.7/site-packages/matplotlib/mpl-data/fonts/ttf/VeraMoBI.ttf'
p1921
aS'/usr/local/bin/homebrew/Cellar/python/2.7.6/Frameworks/Python.framework/Versions/2.7/lib/python2.7/site-packages/matplotlib/mpl-data/fonts/ttf/STIXNonUniBolIta.ttf'
p1922
aS'/usr/local/bin/homebrew/Cellar/python/2.7.6/Frameworks/Python.framework/Versions/2.7/lib/python2.7/site-packages/matplotlib/mpl-data/fonts/ttf/STIXGeneralItalic.ttf'
p1923
aS'/usr/local/bin/homebrew/Cellar/python/2.7.6/Frameworks/Python.framework/Versions/2.7/lib/python2.7/site-packages/matplotlib/mpl-data/fonts/ttf/VeraBd.ttf'
p1924
aS'/usr/local/bin/homebrew/Cellar/python/2.7.6/Frameworks/Python.framework/Versions/2.7/lib/python2.7/site-packages/matplotlib/mpl-data/fonts/ttf/STIXSizOneSymReg.ttf'
p1925
aS'/usr/local/bin/homebrew/Cellar/python/2.7.6/Frameworks/Python.framework/Versions/2.7/lib/python2.7/site-packages/matplotlib/mpl-data/fonts/ttf/Vera.ttf'
p1926
aS'/usr/local/bin/homebrew/Cellar/python/2.7.6/Frameworks/Python.framework/Versions/2.7/lib/python2.7/site-packages/matplotlib/mpl-data/fonts/ttf/VeraSeBd.ttf'
p1927
aS'/Library/Fonts/Trebuchet MS Italic.ttf'
p1928
aS'/Library/Fonts/MshtakanRegular.ttf'
p1929
aS'/Library/Fonts/MyriadPro-CondIt.otf'
p1930
aS'/usr/X11/lib/X11/fonts/OTF/SyrCOMUrhoy.otf'
p1931
aS'/Library/Fonts/PoplarStd.otf'
p1932
aS'/Library/Fonts/ArnoPro-SmbdSubhead.otf'
p1933
aS'/Library/Fonts/KozGoPr6N-Heavy.otf'
p1934
aS'/Library/Fonts/ArnoPro-SmbdItalicSubhead.otf'
p1935
aS'/Library/Fonts/Microsoft/Gill Sans MT Italic.ttf'
p1936
aS'/Library/Fonts/Times New Roman.ttf'
p1937
aS'/Library/Fonts/NISC18030.ttf'
p1938
aS'/Library/Fonts/AppleMyungjo.ttf'
p1939
aS'/Library/Fonts/ArnoPro-BoldItalic.otf'
p1940
aS'/Library/Fonts/Osaka.ttf'
p1941
aS'/usr/X11R6/lib/X11/fonts/TTF/Vera.ttf'
p1942
aS'/usr/X11R6/lib/X11/fonts/TTF/VeraMono.ttf'
p1943
aS'/Library/Fonts/STIXSizThreeSymBol.otf'
p1944
aS'/System/Library/Fonts/Symbol.ttf'
p1945
aS'/usr/X11/lib/X11/fonts/OTF/SyrCOMCtesiphon.otf'
p1946
aS'/Library/Fonts/BellGothicStd-Black.otf'
p1947
aS'/Library/Fonts/AlBayan.ttf'
p1948
aS'/Library/Fonts/Microsoft/Candara Bold.ttf'
p1949
aS'/Library/Fonts/Microsoft/Tw Cen MT.ttf'
p1950
aS'/Library/Fonts/MyriadPro-It.otf'
p1951
aS'/usr/X11R6/lib/X11/fonts/TTF/luxirb.ttf'
p1952
aS'/Library/Fonts/Microsoft/Corbel Bold.ttf'
p1953
aS'/Library/Fonts/ArnoPro-ItalicSmText.otf'
p1954
aS'/Library/Fonts/Nadeem.ttf'
p1955
aS'/Library/Fonts/AlBayanBold.ttf'
p1956
aS'/Library/Fonts/KozGoPr6N-Regular.otf'
p1957
aS'/Library/Fonts/Arial Bold Italic.ttf'
p1958
aS'/Library/Fonts/TektonPro-Bold.otf'
p1959
aS'/usr/X11/lib/X11/fonts/OTF/SyrCOMBatnan.otf'
p1960
aS'/Library/Fonts/MshtakanBold.ttf'
p1961
aS'/usr/X11/lib/X11/fonts/TTF/VeraMono.ttf'
p1962
aS'/Library/Fonts/ArnoPro-Caption.otf'
p1963
aS'/Library/Fonts/Microsoft/Calibril.ttf'
p1964
aS'/Library/Fonts/LetterGothicStd.otf'
p1965
aS'/Library/Fonts/STIXSizFiveSymReg.otf'
p1966
aS'/usr/X11/lib/X11/fonts/OTF/SyrCOMUrhoyBold.otf'
p1967
aS'/Library/Fonts/Gurmukhi.ttf'
p1968
aS'/Library/Fonts/Yu Gothic Bold.otf'
p1969
aS'/System/Library/Fonts/Apple Color Emoji.ttf'
p1970
aS'/Library/Fonts/Microsoft/Cambria Italic.ttf'
p1971
aS'/Library/Fonts/TektonPro-BoldObl.otf'
p1972
aS'/usr/X11/lib/X11/fonts/OTF/SyrCOMAdiabene.otf'
p1973
aS'/Library/Fonts/AdobeMyungjoStd-Medium.otf'
p1974
aS'/Library/Fonts/\xe3\x83\x92\xe3\x83\xa9\xe3\x82\xad\xe3\x82\x99\xe3\x83\x8e\xe4\xb8\xb8\xe3\x82\xb3\xe3\x82\x99 Pro W4.otf'
p1975
aS'/Library/Fonts/Microsoft/Perpetua Bold Italic.ttf'
p1976
aS'/Library/Fonts/AdobeGothicStd-Bold.otf'
p1977
aS'/usr/X11/lib/X11/fonts/OTF/SyrCOMTalada.otf'
p1978
aS'/Library/Fonts/Microsoft/Verdana Bold.ttf'
p1979
aS'/Library/Fonts/MyriadPro-Semibold.otf'
p1980
aS'/Library/Fonts/ArnoPro-BoldItalicSmText.otf'
p1981
aS'/Library/Fonts/Microsoft/Verdana.ttf'
p1982
aS'/Library/Fonts/Khmer Sangam MN.ttf'
p1983
aS'/Library/Fonts/PCmyoungjo.ttf'
p1984
aS'/Library/Fonts/Microsoft/mingliu_hkscs.ttf'
p1985
aS'/Library/Fonts/KozMinPr6N-Bold.otf'
p1986
aS'/Library/Fonts/Verdana Bold Italic.ttf'
p1987
aS'/usr/X11/lib/X11/fonts/OTF/SyrCOMQenNeshrin.otf'
p1988
aS'/usr/X11/lib/X11/fonts/OTF/SyrCOMMalankara.otf'
p1989
aS'/usr/X11/lib/X11/fonts/OTF/SyrCOMEdessa.otf'
p1990
aS'/Library/Fonts/Kokonor.ttf'
p1991
aS'/usr/X11/lib/X11/fonts/OTF/GohaTibebZemen.otf'
p1992
aS'/System/Library/Fonts/Apple Braille.ttf'
p1993
aS'/Library/Fonts/\xe3\x83\x92\xe3\x83\xa9\xe3\x82\xad\xe3\x82\x99\xe3\x83\x8e\xe6\x98\x8e\xe6\x9c\x9d Pro W6.otf'
p1994
aS'/Library/Fonts/Kailasa.ttf'
p1995
aS'/Library/Fonts/ArnoPro-SmbdItalicSmText.otf'
p1996
aS'/Library/Fonts/STIXNonUniIta.otf'
p1997
aS'/Library/Fonts/Baghdad.ttf'
p1998
aS'/Library/Fonts/TektonPro-BoldExt.otf'
p1999
aS'/Library/Fonts/ChaparralPro-Italic.otf'
p2000
aS'/Library/Fonts/Comic Sans MS Bold.ttf'
p2001
aS'/Library/Fonts/ArnoPro-SmText.otf'
p2002
aS'/Library/Fonts/ArnoPro-SmbdSmText.otf'
p2003
aS'/usr/X11/lib/X11/fonts/TTF/luxisr.ttf'
p2004
aS'/Library/Fonts/AGaramondPro-BoldItalic.otf'
p2005
aS'/Library/Fonts/AppleSDGothicNeo-SemiBold.otf'
p2006
aS'/Library/Fonts/STIXNonUniBol.otf'
p2007
aS'/Library/Fonts/Webdings.ttf'
p2008
aS'/System/Library/Fonts/Apple Braille Pinpoint 6 Dot.ttf'
p2009
aS'/Library/Fonts/KozMinPr6N-Heavy.otf'
p2010
aS'/usr/X11/lib/X11/fonts/TTF/VeraSeBd.ttf'
p2011
aS'/Library/Fonts/Microsoft/MingLiU_HKSCS-ExtB.ttf'
p2012
aS'/Library/Fonts/KozGoPro-Heavy.otf'
p2013
aS'/Library/Fonts/Microsoft/Franklin Gothic Book Italic.ttf'
p2014
aS'/Library/Fonts/ArnoPro-SmbdItalic.otf'
p2015
aS'/usr/X11R6/lib/X11/fonts/TTF/VeraSeBd.ttf'
p2016
aS'/Library/Fonts/Microsoft/Palatino Linotype Bold Italic.ttf'
p2017
aS'/Library/Fonts/STIXIntUpSmReg.otf'
p2018
aS'/Library/Fonts/Microsoft/Meiryo.ttf'
p2019
aS'/Library/Fonts/MinionPro-MediumIt.otf'
p2020
aS'/Library/Fonts/KozMinPro-Regular.otf'
p2021
aS'/Library/Fonts/Kai.ttf'
p2022
aS'/Library/Fonts/Courier New Italic.ttf'
p2023
aS'/Library/Fonts/Microsoft/Verdana Bold Italic.ttf'
p2024
aS'/Library/Fonts/Arial Black.ttf'
p2025
aS'/Library/Fonts/MyriadPro-SemiboldIt.otf'
p2026
aS'/usr/X11/lib/X11/fonts/TTF/luxirr.ttf'
p2027
aS'/usr/X11/lib/X11/fonts/OTF/SyrCOMMardin.otf'
p2028
aS'/Library/Fonts/STIXGeneralItalic.otf'
p2029
aS'/Library/Fonts/MyriadPro-BoldCondIt.otf'
p2030
aS'/usr/X11R6/lib/X11/fonts/TTF/VeraBd.ttf'
p2031
aS'/Library/Fonts/STIXSizFourSymReg.otf'
p2032
aS'/Library/Fonts/AdobeKaitiStd-Regular.otf'
p2033
aS'/Library/Fonts/Microsoft/msyi.ttf'
p2034
aS'/Library/Fonts/NuevaStd-Cond.otf'
p2035
aS'/Library/Fonts/Wingdings 3.ttf'
p2036
aS'/Library/Fonts/Microsoft/Wingdings 3.ttf'
p2037
aS'/Library/Fonts/Microsoft/Consolas.ttf'
p2038
aS'/Library/Fonts/Microsoft/Perpetua Italic.ttf'
p2039
aS'/Library/Fonts/Comic Sans MS.ttf'
p2040
aS'/Library/Fonts/KozMinPr6N-Light.otf'
p2041
aS'/Library/Fonts/Microsoft/PMingLiU.ttf'
p2042
aS'/Library/Fonts/Microsoft/Arial.ttf'
p2043
aS'/Library/Fonts/STIXSizFourSymBol.otf'
p2044
aS'/Library/Fonts/KozGoPr6N-Medium.otf'
p2045
aS'/Library/Fonts/Microsoft/Marlett.ttf'
p2046
aS'/Library/Fonts/Microsoft/Calibri Bold.ttf'
p2047
aS'/Library/Fonts/YuppySC-Regular.otf'
p2048
aS'/Library/Fonts/MinionPro-Medium.otf'
p2049
aS'/Library/Fonts/Wingdings.ttf'
p2050
aS'/Library/Fonts/Impact.ttf'
p2051
aS'/Library/Fonts/Tahoma Bold.ttf'
p2052
aS'/Library/Fonts/Georgia Bold Italic.ttf'
p2053
aS'/Library/Fonts/TektonPro-BoldCond.otf'
p2054
aS'/usr/X11R6/lib/X11/fonts/TTF/VeraMoBd.ttf'
p2055
aS'/usr/X11/lib/X11/fonts/TTF/luximbi.ttf'
p2056
aS'/Library/Fonts/ArnoPro-BoldItalicCaption.otf'
p2057
aS'/Library/Fonts/Hoefler Text Ornaments.ttf'
p2058
aS'/usr/X11/lib/X11/fonts/OTF/SyrCOMNisibin.otf'
p2059
aS'/Library/Fonts/AdobeArabic-Italic.otf'
p2060
aS'/System/Library/Fonts/\xe3\x83\x92\xe3\x83\xa9\xe3\x82\xad\xe3\x82\x99\xe3\x83\x8e\xe6\x98\x8e\xe6\x9c\x9d ProN W6.otf'
p2061
aS'/Library/Fonts/RosewoodStd-Regular.otf'
p2062
aS'/Library/Fonts/AdobeArabic-Bold.otf'
p2063
aS'/Library/Fonts/Pilgiche.ttf'
p2064
aS'/Library/Fonts/Microsoft/Gill Sans MT.ttf'
p2065
aS'/Library/Fonts/ArnoPro-ItalicCaption.otf'
p2066
aS'/Library/Fonts/Microsoft/Verdana Italic.ttf'
p2067
aS'/Library/Fonts/Yu Gothic Medium.otf'
p2068
aS'/Library/Fonts/GujaratiMTBold.ttf'
p2069
aS'/Library/Fonts/LetterGothicStd-BoldSlanted.otf'
p2070
aS'/usr/X11/lib/X11/fonts/TTF/luximb.ttf'
p2071
aS'/Library/Fonts/NuevaStd-CondItalic.otf'
p2072
aS'/Library/Fonts/Microsoft/Arial Italic.ttf'
p2073
aS'/usr/X11/lib/X11/fonts/TTF/luxisri.ttf'
p2074
aS'/System/Library/Fonts/ZapfDingbats.ttf'
p2075
aS'/Library/Fonts/Microsoft/Calibri Bold Italic.ttf'
p2076
aS'/Library/Fonts/Apple LiSung Light.ttf'
p2077
aS'/Library/Fonts/Microsoft/Corbel Bold Italic.ttf'
p2078
aS'/Library/Fonts/AGaramondPro-Bold.otf'
p2079
aS'/Library/Fonts/StencilStd.otf'
p2080
aS'/Library/Fonts/ArnoPro-Regular.otf'
p2081
aS'/Library/Fonts/MyriadPro-Regular.otf'
p2082
aS'/Library/Fonts/MyriadPro-Cond.otf'
p2083
aS'/Library/Fonts/Trebuchet MS Bold Italic.ttf'
p2084
aS'/Library/Fonts/ArnoPro-BoldDisplay.otf'
p2085
aS'/Library/Fonts/STIXIntSmBol.otf'
p2086
aS'/Library/Fonts/AdobeMingStd-Light.otf'
p2087
aS'/Library/Fonts/Microsoft/Meiryo Bold.ttf'
p2088
aS'/Library/Fonts/CooperBlackStd.otf'
p2089
aS'/Library/Fonts/Verdana Italic.ttf'
p2090
aS'/Library/Fonts/BellGothicStd-Bold.otf'
p2091
aS'/Library/Fonts/KozGoPro-ExtraLight.otf'
p2092
aS'/Library/Fonts/Microsoft/Tw Cen MT Italic.ttf'
p2093
aS'/Library/Fonts/Microsoft/Bookshelf Symbol 7.ttf'
p2094
aS'/Library/Fonts/ChaparralPro-BoldIt.otf'
p2095
aS'/Library/Fonts/Microsoft/Consolas Bold.ttf'
p2096
aS'/usr/X11/lib/X11/fonts/TTF/VeraIt.ttf'
p2097
aS'/Library/Fonts/AdobeSongStd-Light.otf'
p2098
aS'/Library/Fonts/Hiragino Sans GB W3.otf'
p2099
aS'/Library/Fonts/ArnoPro-SmbdDisplay.otf'
p2100
aS'/Library/Fonts/AdobeHebrew-BoldItalic.otf'
p2101
aS'/Library/Fonts/Verdana.ttf'
p2102
aS'/usr/X11/lib/X11/fonts/TTF/luxisb.ttf'
p2103
aS'/Library/Fonts/STIXNonUni.otf'
p2104
aS'/Library/Fonts/Arial Italic.ttf'
p2105
aS'/Library/Fonts/Trebuchet MS Bold.ttf'
p2106
aS'/Library/Fonts/\xe5\x84\xb7\xe5\xae\x8b Pro.ttf'
p2107
aS'/Library/Fonts/STIXNonUniBolIta.otf'
p2108
aS'/Library/Fonts/BrushScriptStd.otf'
p2109
aS'/Library/Fonts/WawaSC-Regular.otf'
p2110
aS'/Library/Fonts/Microsoft/SimHei.ttf'
p2111
aS'/usr/X11R6/lib/X11/fonts/TTF/luxirbi.ttf'
p2112
aS'/Library/Fonts/AppleSDGothicNeo-Light.otf'
p2113
aS'/Library/Fonts/ACaslonPro-Bold.otf'
p2114
aS'/Library/Fonts/ArnoPro-Display.otf'
p2115
aS'/Library/Fonts/STIXIntSmReg.otf'
p2116
aS'/Library/Fonts/MyriadPro-BoldCond.otf'
p2117
aS'/Library/Fonts/ACaslonPro-Italic.otf'
p2118
aS'/Library/Fonts/Microsoft/MS PGothic.ttf'
p2119
aS'/Library/Fonts/Microsoft/Constantia.ttf'
p2120
aS'/Library/Fonts/Chalkduster.ttf'
p2121
aS'/usr/X11/lib/X11/fonts/OTF/SyrCOMAntioch.otf'
p2122
aS'/Library/Fonts/WeibeiTC-Bold.otf'
p2123
aS'/usr/X11/lib/X11/fonts/OTF/SyrCOMBatnanBold.otf'
p2124
aS'/Library/Fonts/MinionPro-BoldIt.otf'
p2125
aS'/usr/X11/lib/X11/fonts/OTF/SyrCOMJerusalemBold.otf'
p2126
aS'/Library/Fonts/ArnoPro-BoldSubhead.otf'
p2127
aS'/Library/Fonts/ACaslonPro-Regular.otf'
p2128
aS'/Library/Fonts/STIXIntUpReg.otf'
p2129
aS'/Library/Fonts/MesquiteStd.otf'
p2130
aS'/Library/Fonts/BigCaslon.ttf'
p2131
aS'/Library/Fonts/AdobeHebrew-Italic.otf'
p2132
aS'/Library/Fonts/Ayuthaya.ttf'
p2133
aS'/Library/Fonts/OratorStd.otf'
p2134
aS'/Library/Fonts/BlackoakStd.otf'
p2135
aS'/Library/Fonts/\xe3\x83\x92\xe3\x83\xa9\xe3\x82\xad\xe3\x82\x99\xe3\x83\x8e\xe8\xa7\x92\xe3\x82\xb3\xe3\x82\x99 Pro W6.otf'
p2136
aS'/Library/Fonts/ArnoPro-LightDisplay.otf'
p2137
aS'/Library/Fonts/MinionPro-It.otf'
p2138
aS'/Library/Fonts/Microsoft/Arial Bold Italic.ttf'
p2139
aS'/Library/Fonts/ArnoPro-Italic.otf'
p2140
aS'/Library/Fonts/MinionPro-Bold.otf'
p2141
aS'/Library/Fonts/Yu Mincho Medium.otf'
p2142
aS'/Library/Fonts/MinionPro-BoldCnIt.otf'
p2143
aS'/Library/Fonts/Andale Mono.ttf'
p2144
aS'/Library/Fonts/Microsoft/Consolas Italic.ttf'
p2145
aS'/Library/Fonts/LetterGothicStd-Bold.otf'
p2146
aS'/Library/Fonts/Silom.ttf'
p2147
aS'/Library/Fonts/MshtakanBoldOblique.ttf'
p2148
aS'/usr/X11R6/lib/X11/fonts/TTF/luxisri.ttf'
p2149
aS'/usr/X11/lib/X11/fonts/TTF/luximr.ttf'
p2150
aS'/Library/Fonts/Microsoft/Calibri Italic.ttf'
p2151
aS'/Library/Fonts/Microsoft/Candara.ttf'
p2152
aS'/Library/Fonts/Microsoft/MingLiU.ttf'
p2153
aS'/Library/Fonts/Microsoft/Gulim.ttf'
p2154
aS'/Library/Fonts/Lao Sangam MN.ttf'
p2155
aS'/usr/X11R6/lib/X11/fonts/TTF/GohaTibebZemen.ttf'
p2156
aS'/Library/Fonts/KufiStandardGK.ttf'
p2157
aS'/Library/Fonts/Hei.ttf'
p2158
aS'/Library/Fonts/Microsoft/Cambria Bold Italic.ttf'
p2159
aS'/Library/Fonts/Microsoft/Gabriola.ttf'
p2160
aS'/System/Library/Fonts/\xe3\x83\x92\xe3\x83\xa9\xe3\x82\xad\xe3\x82\x99\xe3\x83\x8e\xe6\x98\x8e\xe6\x9c\x9d ProN W3.otf'
p2161
aS'/Library/Fonts/ACaslonPro-BoldItalic.otf'
p2162
aS'/Library/Fonts/ACaslonPro-SemiboldItalic.otf'
p2163
aS'/Library/Fonts/GaramondPremrPro-Smbd.otf'
p2164
aS'/Library/Fonts/ArnoPro-ItalicSubhead.otf'
p2165
aS'/Library/Fonts/KozGoPr6N-ExtraLight.otf'
p2166
aS'/usr/X11R6/lib/X11/fonts/TTF/VeraBI.ttf'
p2167
aS'/Library/Fonts/OCRAStd.otf'
p2168
aS'/Library/Fonts/Verdana Bold.ttf'
p2169
aS'/Library/Fonts/BickhamScriptPro-Regular.otf'
p2170
aS'/Library/Fonts/ArnoPro-Subhead.otf'
p2171
aS'/Library/Fonts/STIXSizThreeSymReg.otf'
p2172
aS'/Library/Fonts/DIN Condensed Bold.ttf'
p2173
aS'/usr/X11R6/lib/X11/fonts/TTF/luxirri.ttf'
p2174
aS'/Library/Fonts/Microsoft/himalaya.ttf'
p2175
aS'/Library/Fonts/Arial.ttf'
p2176
aS'/Library/Fonts/AppleGothic.ttf'
p2177
aS'/Library/Fonts/Arial Narrow.ttf'
p2178
aS'/System/Library/Fonts/AppleSDGothicNeo-Bold.otf'
p2179
aS'/Library/Fonts/MshtakanOblique.ttf'
p2180
aS'/Library/Fonts/Microsoft/Times New Roman Italic.ttf'
p2181
aS'/Library/Fonts/Microsoft/Times New Roman.ttf'
p2182
aS'/Library/Fonts/GaramondPremrPro.otf'
p2183
aS'/Library/Fonts/Microsoft/PMingLiU-ExtB.ttf'
p2184
aS'/usr/X11/lib/X11/fonts/TTF/luximri.ttf'
p2185
aS'/usr/X11R6/lib/X11/fonts/TTF/VeraMoIt.ttf'
p2186
aS'/usr/X11/lib/X11/fonts/OTF/SyrCOMMardinBold.otf'
p2187
aS'/Library/Fonts/Myanmar Sangam MN.ttf'
p2188
aS'/Library/Fonts/ArnoPro-SmbdItalicDisplay.otf'
p2189
aS'/Library/Fonts/Arial Narrow Bold.ttf'
p2190
aS'/Library/Fonts/Times New Roman Italic.ttf'
p2191
aS'/Library/Fonts/Georgia.ttf'
p2192
aS'/Library/Fonts/NuevaStd-BoldCondItalic.otf'
p2193
aS'/Library/Fonts/CharlemagneStd-Bold.otf'
p2194
aS'/Library/Fonts/PrestigeEliteStd-Bd.otf'
p2195
aS'/Library/Fonts/Microsoft/Constantia Bold.ttf'
p2196
aS'/Library/Fonts/MinionPro-Regular.otf'
p2197
aS'/usr/X11/lib/X11/fonts/TTF/luxirb.ttf'
p2198
aS'/Library/Fonts/Times New Roman Bold Italic.ttf'
p2199
aS'/Library/Fonts/Arial Narrow Italic.ttf'
p2200
aS'/Library/Fonts/ArnoPro-Smbd.otf'
p2201
aS'/Library/Fonts/\xe5\x84\xb7\xe9\xbb\x91 Pro.ttf'
p2202
aS'/System/Library/Fonts/AppleSDGothicNeo-Regular.otf'
p2203
aS'/Library/Fonts/Microsoft/Arial Bold.ttf'
p2204
aS'/Library/Fonts/Microsoft/Tw Cen MT Bold.ttf'
p2205
aS'/Library/Fonts/PlantagenetCherokee.ttf'
p2206
aS'/Library/Fonts/BiauKai.ttf'
p2207
aS'/Library/Fonts/Microsoft/Brush Script.ttf'
p2208
aS'/Library/Fonts/Microsoft/Tw Cen MT Bold Italic.ttf'
p2209
aS'/Library/Fonts/STIXVar.otf'
p2210
aS'/Library/Fonts/Microsoft/Candara Bold Italic.ttf'
p2211
aS'/System/Library/Fonts/\xe3\x83\x92\xe3\x83\xa9\xe3\x82\xad\xe3\x82\x99\xe3\x83\x8e\xe8\xa7\x92\xe3\x82\xb3\xe3\x82\x99 ProN W6.otf'
p2212
aS'/Library/Fonts/Microsoft/MS Reference Specialty.ttf'
p2213
aS'/Library/Fonts/BirchStd.otf'
p2214
aS'/Library/Fonts/Microsoft/Cambria Math.ttf'
p2215
aS'/Library/Fonts/Skia.ttf'
p2216
aS'/Library/Fonts/KozGoPr6N-Bold.otf'
p2217
aS'/Library/Fonts/AdobeArabic-Regular.otf'
p2218
aS'/usr/X11R6/lib/X11/fonts/TTF/luxisbi.ttf'
p2219
aS'/Library/Fonts/KozMinPro-Heavy.otf'
p2220
aS'/Library/Fonts/Yu Mincho Demibold.otf'
p2221
aS'/Library/Fonts/\xe5\x8d\x8e\xe6\x96\x87\xe4\xbb\xbf\xe5\xae\x8b.ttf'
p2222
aS'/Library/Fonts/ArnoPro-Bold.otf'
p2223
aS'/Library/Fonts/LithosPro-Regular.otf'
p2224
aS'/usr/X11/lib/X11/fonts/TTF/VeraMoBd.ttf'
p2225
aS'/Library/Fonts/GiddyupStd.otf'
p2226
aS'/Library/Fonts/KozMinPro-Bold.otf'
p2227
aS'/Library/Fonts/Microsoft/Perpetua.ttf'
p2228
aS'/Library/Fonts/NuevaStd-BoldCond.otf'
p2229
aS'/Library/Fonts/Microsoft/Cambria Bold.ttf'
p2230
aS'/Library/Fonts/Courier New Bold Italic.ttf'
p2231
aS'/usr/X11/lib/X11/fonts/TTF/VeraBd.ttf'
p2232
aS'/Library/Fonts/Arial Rounded Bold.ttf'
p2233
aS'/Library/Fonts/DevanagariMTBold.ttf'
p2234
aS'/Library/Fonts/TrajanPro-Bold.otf'
p2235
aS'/Library/Fonts/AdobeArabic-BoldItalic.otf'
p2236
aS'/Library/Fonts/ArnoPro-SmbdItalicCaption.otf'
p2237
aS'/Library/Fonts/KozGoPr6N-Light.otf'
p2238
aS'/Library/Fonts/Microsoft/MingLiU-ExtB.ttf'
p2239
aS'/Library/Fonts/Microsoft/Franklin Gothic Medium Italic.ttf'
p2240
aS'/Library/Fonts/KozMinPro-Medium.otf'
p2241
aS'/usr/X11R6/lib/X11/fonts/TTF/VeraIt.ttf'
p2242
aS'/Library/Fonts/Microsoft/Constantia Italic.ttf'
p2243
aS'/Library/Fonts/InaiMathi.ttf'
p2244
aS'/Library/Fonts/Microsoft/Cambria.ttf'
p2245
aS'/Library/Fonts/Microsoft/Perpetua Bold.ttf'
p2246
aS'/Library/Fonts/Microsoft/Batang.ttf'
p2247
aS'/Library/Fonts/KozGoPro-Light.otf'
p2248
aS'/usr/X11R6/lib/X11/fonts/TTF/luxirr.ttf'
p2249
aS'/Library/Fonts/BickhamScriptPro-Bold.otf'
p2250
aS'/Library/Fonts/MinionPro-Semibold.otf'
p2251
aS'/Library/Fonts/LetterGothicStd-Slanted.otf'
p2252
aS'/Library/Fonts/DecoTypeNaskh.ttf'
p2253
aS'/Library/Fonts/MyriadPro-BoldIt.otf'
p2254
aS'/Library/Fonts/HeadlineA.ttf'
p2255
aS'/System/Library/Fonts/Keyboard.ttf'
p2256
aS'/Library/Fonts/\xe3\x83\x92\xe3\x83\xa9\xe3\x82\xad\xe3\x82\x99\xe3\x83\x8e\xe8\xa7\x92\xe3\x82\xb3\xe3\x82\x99 Std W8.otf'
p2257
aS'/Library/Fonts/Microsoft/Lucida Sans Unicode.ttf'
p2258
aS'/Library/Fonts/Hiragino Sans GB W6.otf'
p2259
aS'/System/Library/Fonts/Geeza Pro.ttf'
p2260
aS'/usr/X11R6/lib/X11/fonts/TTF/luximbi.ttf'
p2261
aS'/Library/Fonts/Microsoft/Consolas Bold Italic.ttf'
p2262
aS'/Library/Fonts/Microsoft Sans Serif.ttf'
p2263
aS'/Library/Fonts/Microsoft/Lucida Console.ttf'
p2264
aS'/Library/Fonts/STIXIntUpDBol.otf'
p2265
aS'/Library/Fonts/MyriadPro-Bold.otf'
p2266
aS'/Library/Fonts/STIXGeneral.otf'
p2267
aS'/usr/X11R6/lib/X11/fonts/TTF/luxisb.ttf'
p2268
aS'/Library/Fonts/\xe3\x83\x92\xe3\x83\xa9\xe3\x82\xad\xe3\x82\x99\xe3\x83\x8e\xe8\xa7\x92\xe3\x82\xb3\xe3\x82\x99 Pro W3.otf'
p2269
aS'/Library/Fonts/TrajanPro-Regular.otf'
p2270
aS'/Library/Fonts/YuppyTC-Regular.otf'
p2271
aS'/Library/Fonts/Apple Chancery.ttf'
p2272
aS'/usr/X11/lib/X11/fonts/TTF/Vera.ttf'
p2273
aS'/Library/Fonts/ArnoPro-BoldItalicDisplay.otf'
p2274
aS'/Library/Fonts/STIXIntUpSmBol.otf'
p2275
aS'/usr/X11/lib/X11/fonts/TTF/VeraMoBI.ttf'
p2276
aS'/usr/X11R6/lib/X11/fonts/TTF/luxisr.ttf'
p2277
aS'/Library/Fonts/STIXSizOneSymBol.otf'
p2278
aS'/Library/Fonts/Microsoft/SimSun-ExtB.ttf'
p2279
aS'/Library/Fonts/Microsoft/Palatino Linotype.ttf'
p2280
aS'/Library/Fonts/AdobeHebrew-Regular.otf'
p2281
aS'/Library/Fonts/STIXSizTwoSymReg.otf'
p2282
aS'/Library/Fonts/WeibeiSC-Bold.otf'
p2283
aS'/Library/Fonts/ArnoPro-ItalicDisplay.otf'
p2284
aS'/Library/Fonts/Arial Bold.ttf'
p2285
aS'/Library/Fonts/Georgia Bold.ttf'
p2286
aS'/usr/X11/lib/X11/fonts/OTF/SyrCOMJerusalemItalic.otf'
p2287
aS'/Library/Fonts/Microsoft/TaiLeb.ttf'
p2288
aS'/Library/Fonts/GaramondPremrPro-It.otf'
p2289
aS'/Library/Fonts/STIXIntUpDReg.otf'
p2290
aS'/usr/X11R6/lib/X11/fonts/TTF/luximri.ttf'
p2291
aS'/Library/Fonts/ArnoPro-BoldSmText.otf'
p2292
aS'/Library/Fonts/Microsoft/Meiryo Bold Italic.ttf'
p2293
aS'/Library/Fonts/KozGoPro-Bold.otf'
p2294
aS'/Library/Fonts/Microsoft/Candara Italic.ttf'
p2295
aS'/Library/Fonts/KozGoPro-Medium.otf'
p2296
aS'/Library/Fonts/AppleSDGothicNeo-UltraLight.otf'
p2297
aS'/Library/Fonts/Arial Unicode.ttf'
p2298
aS'/usr/X11/lib/X11/fonts/TTF/VeraSe.ttf'
p2299
aS'/Library/Fonts/AdobeHeitiStd-Regular.otf'
p2300
aS'/usr/X11R6/lib/X11/fonts/TTF/VeraMoBI.ttf'
p2301
aS'/Library/Fonts/AppleSDGothicNeo-Heavy.otf'
p2302
aS'/Library/Fonts/Microsoft/Times New Roman Bold.ttf'
p2303
aS'/Library/Fonts/KozMinPr6N-Regular.otf'
p2304
aS'/Library/Fonts/AdobeFanHeitiStd-Bold.otf'
p2305
aS'/Library/Fonts/ArnoPro-LightItalicDisplay.otf'
p2306
aS'/usr/X11/lib/X11/fonts/OTF/SyrCOMJerusalemOutline.otf'
p2307
aS'/Library/Fonts/ArnoPro-BoldCaption.otf'
p2308
aS'/Library/Fonts/STIXIntDBol.otf'
p2309
aS'/Library/Fonts/ChaparralPro-Bold.otf'
p2310
aS'/Library/Fonts/DIN Alternate Bold.ttf'
p2311
aS'/Library/Fonts/Courier New.ttf'
p2312
aS'/Library/Fonts/Arial Narrow Bold Italic.ttf'
p2313
aS'/usr/X11/lib/X11/fonts/OTF/SyrCOMJerusalem.otf'
p2314
aS'/Library/Fonts/Zapfino.ttf'
p2315
aS'/Library/Fonts/Krungthep.ttf'
p2316
aS'/Library/Fonts/AppleSDGothicNeo-ExtraBold.otf'
p2317
aS'/Library/Fonts/Microsoft/Times New Roman Bold Italic.ttf'
p2318
aS'/Library/Fonts/Microsoft/monbaiti.ttf'
p2319
aS'/Library/Fonts/Microsoft/Franklin Gothic Medium.ttf'
p2320
aS'/usr/X11/lib/X11/fonts/TTF/VeraMoIt.ttf'
p2321
aS'/Library/Fonts/GaramondPremrPro-SmbdIt.otf'
p2322
aS'/Library/Fonts/CooperBlackStd-Italic.otf'
p2323
aS'/Library/Fonts/MinionPro-BoldCn.otf'
p2324
aS'/System/Library/Fonts/\xe3\x83\x92\xe3\x83\xa9\xe3\x82\xad\xe3\x82\x99\xe3\x83\x8e\xe8\xa7\x92\xe3\x82\xb3\xe3\x82\x99 ProN W3.otf'
p2325
aS'/Library/Fonts/\xe5\x8d\x8e\xe6\x96\x87\xe9\xbb\x91\xe4\xbd\x93.ttf'
p2326
aS'/usr/X11/lib/X11/fonts/OTF/SyrCOMMidyat.otf'
p2327
aS'/System/Library/Fonts/Apple Braille Outline 8 Dot.ttf'
p2328
aS'/Library/Fonts/KozMinPro-Light.otf'
p2329
aS'/Library/Fonts/BickhamScriptPro-Semibold.otf'
p2330
aS'/Library/Fonts/Times New Roman Bold.ttf'
p2331
aS'/Library/Fonts/Microsoft/Corbel Italic.ttf'
p2332
aS'/usr/X11/lib/X11/fonts/TTF/GohaTibebZemen.ttf'
p2333
aS'/Library/Fonts/Microsoft/Palatino Linotype Bold.ttf'
p2334
aS'/Library/Fonts/AGaramondPro-Italic.otf'
p2335
aS'/Library/Fonts/STIXVarBol.otf'
p2336
aS'/Library/Fonts/\xe3\x83\x92\xe3\x83\xa9\xe3\x82\xad\xe3\x82\x99\xe3\x83\x8e\xe8\xa7\x92\xe3\x82\xb3\xe3\x82\x99 StdN W8.otf'
p2337
aS'/Library/Fonts/Microsoft/MS Gothic.ttf'
p2338
aS'/Library/Fonts/Microsoft/MS PMincho.ttf'
p2339
aS'/Library/Fonts/STIXIntUpBol.otf'
p2340
aS'/Library/Fonts/WawaTC-Regular.otf'
p2341
aS'/Library/Fonts/Microsoft/MS Reference Sans Serif.ttf'
p2342
aS'/Library/Fonts/STIXSizTwoSymBol.otf'
p2343
aS'/Library/Fonts/\xe3\x83\x92\xe3\x83\xa9\xe3\x82\xad\xe3\x82\x99\xe3\x83\x8e\xe6\x98\x8e\xe6\x9c\x9d Pro W3.otf'
p2344
aS'/Library/Fonts/Microsoft/Corbel.ttf'
p2345
aS'/Library/Fonts/ACaslonPro-Semibold.otf'
p2346
aS'/Library/Fonts/EccentricStd.otf'
p2347
aS'/usr/X11/lib/X11/fonts/TTF/luxirbi.ttf'
p2348
aS'/Library/Fonts/tt9830z_.ttf'
p2349
aS'/usr/X11/lib/X11/fonts/OTF/SyrCOMNisibinOutline.otf'
p2350
aS'/Library/Fonts/Microsoft/SimSun.ttf'
p2351
aS'/System/Library/Fonts/Apple Braille Pinpoint 8 Dot.ttf'
p2352
aS'/Library/Fonts/Georgia Italic.ttf'
p2353
aS'/System/Library/Fonts/Apple Braille Outline 6 Dot.ttf'
p2354
aS'/Library/Fonts/AdobeHebrew-Bold.otf'
p2355
aS'/Library/Fonts/Microsoft/Gill Sans MT Bold Italic.ttf'
p2356
aS'/usr/X11/lib/X11/fonts/OTF/SyrCOMKharput.otf'
p2357
aS'/Library/Fonts/AGaramondPro-Regular.otf'
p2358
aS'/Library/Fonts/ArnoPro-BoldItalicSubhead.otf'
p2359
aS'/usr/X11/lib/X11/fonts/TTF/luxirri.ttf'
p2360
aS'/Library/Fonts/ChaparralPro-Regular.otf'
p2361
aS'/System/Library/Fonts/LastResort.ttf'
p2362
aS'/Library/Fonts/AppleSDGothicNeo-Thin.otf'
p2363
aS'/Library/Fonts/ArnoPro-SmbdCaption.otf'
p2364
aS'/System/Library/Fonts/Geeza Pro Bold.ttf'
p2365
aS'/Library/Fonts/STIXGeneralBol.otf'
p2366
aS'/Library/Fonts/Microsoft/Constantia Bold Italic.ttf'
p2367
aS'/Library/Fonts/Microsoft/Franklin Gothic Book.ttf'
p2368
aS'/Library/Fonts/OsakaMono.ttf'
p2369
aS'/Library/Fonts/KozMinPr6N-ExtraLight.otf'
p2370
aS'/Library/Fonts/STIXGeneralBolIta.otf'
p2371
aS'/Library/Fonts/Trebuchet MS.ttf'
p2372
aS'/usr/X11/lib/X11/fonts/TTF/VeraBI.ttf'
p2373
aS'/Library/Fonts/Courier New Bold.ttf'
p2374
aS'/Library/Fonts/AdobeFangsongStd-Regular.otf'
p2375
aS'/Library/Fonts/Herculanum.ttf'
p2376
aS'/Library/Fonts/Microsoft/Wingdings.ttf'
p2377
aS'/Library/Fonts/MinionPro-SemiboldIt.otf'
p2378
aS'/usr/X11/lib/X11/fonts/OTF/SyrCOMTurAbdin.otf'
p2379
aS'/Library/Fonts/Wingdings 2.ttf'
p2380
aS'/Library/Fonts/LithosPro-Black.otf'
p2381
aS'/Library/Fonts/Tahoma.ttf'
p2382
aS'/Library/Fonts/Brush Script.ttf'
p2383
aS'/Library/Fonts/Microsoft/Gill Sans MT Bold.ttf'
p2384
aS'/Library/Fonts/\xe3\x83\x92\xe3\x83\xa9\xe3\x82\xad\xe3\x82\x99\xe3\x83\x8e\xe4\xb8\xb8\xe3\x82\xb3\xe3\x82\x99 ProN W4.otf'
p2385
aS'/Library/Fonts/Microsoft/Palatino Linotype Italic.ttf'
p2386
aS'/Library/Fonts/STIXSizOneSymReg.otf'
p2387
aS'/Library/Fonts/OratorStd-Slanted.otf'
p2388
aS'/usr/X11R6/lib/X11/fonts/TTF/luximr.ttf'
p2389
aS'/Library/Fonts/Microsoft/Wingdings 2.ttf'
p2390
aS'/Library/Fonts/Microsoft/MS Mincho.ttf'
p2391
aS'/Library/Fonts/Microsoft/taile.ttf'
p2392
aS'/Library/Fonts/\xe5\x8d\x8e\xe6\x96\x87\xe7\xbb\x86\xe9\xbb\x91.ttf'
p2393
aS'/usr/X11R6/lib/X11/fonts/TTF/luximb.ttf'
p2394
aS'/Library/Fonts/Microsoft/Meiryo Italic.ttf'
p2395
aS'/Library/Fonts/KozMinPro-ExtraLight.otf'
p2396
aS'/System/Library/Fonts/Apple Symbols.ttf'
p2397
aS'/Library/Fonts/HoboStd.otf'
p2398
aS'/usr/X11R6/lib/X11/fonts/TTF/VeraSe.ttf'
p2399
aS'/Library/Fonts/KozMinPr6N-Medium.otf'
p2400
aS'/Library/Fonts/Apple LiGothic Medium.ttf'
p2401
aS'/Library/Fonts/Microsoft/Calibri.ttf'
p2402
aS'/Library/Fonts/DevanagariMT.ttf'
p2403
aS'/Library/Fonts/STIXIntDReg.otf'
p2404
aS'/Library/Fonts/Gungseouche.ttf'
p2405
aS'/usr/X11/lib/X11/fonts/TTF/luxisbi.ttf'
p2406
aS'/Library/Fonts/KozGoPro-Regular.otf'
p2407
aS'/Library/Fonts/Sathu.ttf'
p2408
aS'/Library/Fonts/GujaratiMT.ttf'
p2409
aS'/Library/Fonts/AppleSDGothicNeo-Medium.otf'
p2410
asS'_FontManager__default_weight'
p2411
g13
sS'_version'
p2412
I101
sS'ttf_lookup_cache'
p2413
(dp2414
sS'default_size'
p2415
NsS'defaultFont'
p2416
(dp2417
g1888
S'/usr/local/bin/homebrew/Cellar/python/2.7.6/Frameworks/Python.framework/Versions/2.7/lib/python2.7/site-packages/matplotlib/mpl-data/fonts/afm/cmr10.afm'
p2418
sg1890
g1926
ssS'afmfiles'
p2419
(lp2420
g2418
aS'/usr/local/bin/homebrew/Cellar/python/2.7.6/Frameworks/Python.framework/Versions/2.7/lib/python2.7/site-packages/matplotlib/mpl-data/fonts/afm/ptmri8a.afm'
p2421
aS'/usr/local/bin/homebrew/Cellar/python/2.7.6/Frameworks/Python.framework/Versions/2.7/lib/python2.7/site-packages/matplotlib/mpl-data/fonts/pdfcorefonts/Times-Roman.afm'
p2422
aS'/usr/local/bin/homebrew/Cellar/python/2.7.6/Frameworks/Python.framework/Versions/2.7/lib/python2.7/site-packages/matplotlib/mpl-data/fonts/afm/phvbo8a.afm'
p2423
aS'/usr/local/bin/homebrew/Cellar/python/2.7.6/Frameworks/Python.framework/Versions/2.7/lib/python2.7/site-packages/matplotlib/mpl-data/fonts/afm/pplr8a.afm'
p2424
aS'/usr/local/bin/homebrew/Cellar/python/2.7.6/Frameworks/Python.framework/Versions/2.7/lib/python2.7/site-packages/matplotlib/mpl-data/fonts/afm/phvbo8an.afm'
p2425
aS'/usr/local/bin/homebrew/Cellar/python/2.7.6/Frameworks/Python.framework/Versions/2.7/lib/python2.7/site-packages/matplotlib/mpl-data/fonts/pdfcorefonts/Courier-BoldOblique.afm'
p2426
aS'/usr/local/bin/homebrew/Cellar/python/2.7.6/Frameworks/Python.framework/Versions/2.7/lib/python2.7/site-packages/matplotlib/mpl-data/fonts/pdfcorefonts/Courier.afm'
p2427
aS'/usr/local/bin/homebrew/Cellar/python/2.7.6/Frameworks/Python.framework/Versions/2.7/lib/python2.7/site-packages/matplotlib/mpl-data/fonts/pdfcorefonts/Helvetica-BoldOblique.afm'
p2428
aS'/usr/local/bin/homebrew/Cellar/python/2.7.6/Frameworks/Python.framework/Versions/2.7/lib/python2.7/site-packages/matplotlib/mpl-data/fonts/afm/putbi8a.afm'
p2429
aS'/usr/local/bin/homebrew/Cellar/python/2.7.6/Frameworks/Python.framework/Versions/2.7/lib/python2.7/site-packages/matplotlib/mpl-data/fonts/pdfcorefonts/ZapfDingbats.afm'
p2430
aS'/usr/local/bin/homebrew/Cellar/python/2.7.6/Frameworks/Python.framework/Versions/2.7/lib/python2.7/site-packages/matplotlib/mpl-data/fonts/afm/pcrbo8a.afm'
p2431
aS'/usr/local/bin/homebrew/Cellar/python/2.7.6/Frameworks/Python.framework/Versions/2.7/lib/python2.7/site-packages/matplotlib/mpl-data/fonts/afm/pncri8a.afm'
p2432
aS'/usr/local/bin/homebrew/Cellar/python/2.7.6/Frameworks/Python.framework/Versions/2.7/lib/python2.7/site-packages/matplotlib/mpl-data/fonts/afm/phvro8an.afm'
p2433
aS'/usr/local/bin/homebrew/Cellar/python/2.7.6/Frameworks/Python.framework/Versions/2.7/lib/python2.7/site-packages/matplotlib/mpl-data/fonts/afm/pbkl8a.afm'
p2434
aS'/usr/local/bin/homebrew/Cellar/python/2.7.6/Frameworks/Python.framework/Versions/2.7/lib/python2.7/site-packages/matplotlib/mpl-data/fonts/afm/pagdo8a.afm'
p2435
aS'/usr/local/bin/homebrew/Cellar/python/2.7.6/Frameworks/Python.framework/Versions/2.7/lib/python2.7/site-packages/matplotlib/mpl-data/fonts/afm/cmmi10.afm'
p2436
aS'/usr/local/bin/homebrew/Cellar/python/2.7.6/Frameworks/Python.framework/Versions/2.7/lib/python2.7/site-packages/matplotlib/mpl-data/fonts/afm/pplri8a.afm'
p2437
aS'/usr/local/bin/homebrew/Cellar/python/2.7.6/Frameworks/Python.framework/Versions/2.7/lib/python2.7/site-packages/matplotlib/mpl-data/fonts/afm/pncb8a.afm'
p2438
aS'/usr/local/bin/homebrew/Cellar/python/2.7.6/Frameworks/Python.framework/Versions/2.7/lib/python2.7/site-packages/matplotlib/mpl-data/fonts/pdfcorefonts/Times-Italic.afm'
p2439
aS'/usr/local/bin/homebrew/Cellar/python/2.7.6/Frameworks/Python.framework/Versions/2.7/lib/python2.7/site-packages/matplotlib/mpl-data/fonts/afm/phvl8a.afm'
p2440
aS'/usr/local/bin/homebrew/Cellar/python/2.7.6/Frameworks/Python.framework/Versions/2.7/lib/python2.7/site-packages/matplotlib/mpl-data/fonts/afm/pbkdi8a.afm'
p2441
aS'/usr/local/bin/homebrew/Cellar/python/2.7.6/Frameworks/Python.framework/Versions/2.7/lib/python2.7/site-packages/matplotlib/mpl-data/fonts/afm/phvlo8a.afm'
p2442
aS'/usr/local/bin/homebrew/Cellar/python/2.7.6/Frameworks/Python.framework/Versions/2.7/lib/python2.7/site-packages/matplotlib/mpl-data/fonts/afm/pzcmi8a.afm'
p2443
aS'/usr/local/bin/homebrew/Cellar/python/2.7.6/Frameworks/Python.framework/Versions/2.7/lib/python2.7/site-packages/matplotlib/mpl-data/fonts/afm/pcrro8a.afm'
p2444
aS'/usr/local/bin/homebrew/Cellar/python/2.7.6/Frameworks/Python.framework/Versions/2.7/lib/python2.7/site-packages/matplotlib/mpl-data/fonts/afm/cmsy10.afm'
p2445
aS'/usr/local/bin/homebrew/Cellar/python/2.7.6/Frameworks/Python.framework/Versions/2.7/lib/python2.7/site-packages/matplotlib/mpl-data/fonts/afm/phvro8a.afm'
p2446
aS'/usr/local/bin/homebrew/Cellar/python/2.7.6/Frameworks/Python.framework/Versions/2.7/lib/python2.7/site-packages/matplotlib/mpl-data/fonts/pdfcorefonts/Helvetica.afm'
p2447
aS'/usr/local/bin/homebrew/Cellar/python/2.7.6/Frameworks/Python.framework/Versions/2.7/lib/python2.7/site-packages/matplotlib/mpl-data/fonts/pdfcorefonts/Times-Bold.afm'
p2448
aS'/usr/local/bin/homebrew/Cellar/python/2.7.6/Frameworks/Python.framework/Versions/2.7/lib/python2.7/site-packages/matplotlib/mpl-data/fonts/afm/pcrr8a.afm'
p2449
aS'/usr/local/bin/homebrew/Cellar/python/2.7.6/Frameworks/Python.framework/Versions/2.7/lib/python2.7/site-packages/matplotlib/mpl-data/fonts/afm/psyr.afm'
p2450
aS'/usr/local/bin/homebrew/Cellar/python/2.7.6/Frameworks/Python.framework/Versions/2.7/lib/python2.7/site-packages/matplotlib/mpl-data/fonts/afm/putr8a.afm'
p2451
aS'/usr/local/bin/homebrew/Cellar/python/2.7.6/Frameworks/Python.framework/Versions/2.7/lib/python2.7/site-packages/matplotlib/mpl-data/fonts/afm/pagko8a.afm'
p2452
aS'/usr/local/bin/homebrew/Cellar/python/2.7.6/Frameworks/Python.framework/Versions/2.7/lib/python2.7/site-packages/matplotlib/mpl-data/fonts/afm/pzdr.afm'
p2453
aS'/usr/local/bin/homebrew/Cellar/python/2.7.6/Frameworks/Python.framework/Versions/2.7/lib/python2.7/site-packages/matplotlib/mpl-data/fonts/afm/phvr8a.afm'
p2454
aS'/usr/local/bin/homebrew/Cellar/python/2.7.6/Frameworks/Python.framework/Versions/2.7/lib/python2.7/site-packages/matplotlib/mpl-data/fonts/afm/pbkd8a.afm'
p2455
aS'/usr/local/bin/homebrew/Cellar/python/2.7.6/Frameworks/Python.framework/Versions/2.7/lib/python2.7/site-packages/matplotlib/mpl-data/fonts/afm/pplbi8a.afm'
p2456
aS'/usr/local/bin/homebrew/Cellar/python/2.7.6/Frameworks/Python.framework/Versions/2.7/lib/python2.7/site-packages/matplotlib/mpl-data/fonts/afm/pncbi8a.afm'
p2457
aS'/usr/local/bin/homebrew/Cellar/python/2.7.6/Frameworks/Python.framework/Versions/2.7/lib/python2.7/site-packages/matplotlib/mpl-data/fonts/afm/pplb8a.afm'
p2458
aS'/usr/local/bin/homebrew/Cellar/python/2.7.6/Frameworks/Python.framework/Versions/2.7/lib/python2.7/site-packages/matplotlib/mpl-data/fonts/afm/phvr8an.afm'
p2459
aS'/usr/local/bin/homebrew/Cellar/python/2.7.6/Frameworks/Python.framework/Versions/2.7/lib/python2.7/site-packages/matplotlib/mpl-data/fonts/pdfcorefonts/Times-BoldItalic.afm'
p2460
aS'/usr/local/bin/homebrew/Cellar/python/2.7.6/Frameworks/Python.framework/Versions/2.7/lib/python2.7/site-packages/matplotlib/mpl-data/fonts/pdfcorefonts/Helvetica-Bold.afm'
p2461
aS'/usr/local/bin/homebrew/Cellar/python/2.7.6/Frameworks/Python.framework/Versions/2.7/lib/python2.7/site-packages/matplotlib/mpl-data/fonts/pdfcorefonts/Helvetica-Oblique.afm'
p2462
aS'/usr/local/bin/homebrew/Cellar/python/2.7.6/Frameworks/Python.framework/Versions/2.7/lib/python2.7/site-packages/matplotlib/mpl-data/fonts/pdfcorefonts/Courier-Bold.afm'
p2463
aS'/usr/local/bin/homebrew/Cellar/python/2.7.6/Frameworks/Python.framework/Versions/2.7/lib/python2.7/site-packages/matplotlib/mpl-data/fonts/afm/pagd8a.afm'
p2464
aS'/usr/local/bin/homebrew/Cellar/python/2.7.6/Frameworks/Python.framework/Versions/2.7/lib/python2.7/site-packages/matplotlib/mpl-data/fonts/afm/ptmb8a.afm'
p2465
aS'/usr/local/bin/homebrew/Cellar/python/2.7.6/Frameworks/Python.framework/Versions/2.7/lib/python2.7/site-packages/matplotlib/mpl-data/fonts/pdfcorefonts/Symbol.afm'
p2466
aS'/usr/local/bin/homebrew/Cellar/python/2.7.6/Frameworks/Python.framework/Versions/2.7/lib/python2.7/site-packages/matplotlib/mpl-data/fonts/afm/cmtt10.afm'
p2467
aS'/usr/local/bin/homebrew/Cellar/python/2.7.6/Frameworks/Python.framework/Versions/2.7/lib/python2.7/site-packages/matplotlib/mpl-data/fonts/afm/putri8a.afm'
p2468
aS'/usr/local/bin/homebrew/Cellar/python/2.7.6/Frameworks/Python.framework/Versions/2.7/lib/python2.7/site-packages/matplotlib/mpl-data/fonts/afm/ptmbi8a.afm'
p2469
aS'/usr/local/bin/homebrew/Cellar/python/2.7.6/Frameworks/Python.framework/Versions/2.7/lib/python2.7/site-packages/matplotlib/mpl-data/fonts/afm/pcrb8a.afm'
p2470
aS'/usr/local/bin/homebrew/Cellar/python/2.7.6/Frameworks/Python.framework/Versions/2.7/lib/python2.7/site-packages/matplotlib/mpl-data/fonts/afm/putb8a.afm'
p2471
aS'/usr/local/bin/homebrew/Cellar/python/2.7.6/Frameworks/Python.framework/Versions/2.7/lib/python2.7/site-packages/matplotlib/mpl-data/fonts/afm/pbkli8a.afm'
p2472
aS'/usr/local/bin/homebrew/Cellar/python/2.7.6/Frameworks/Python.framework/Versions/2.7/lib/python2.7/site-packages/matplotlib/mpl-data/fonts/afm/pncr8a.afm'
p2473
aS'/usr/local/bin/homebrew/Cellar/python/2.7.6/Frameworks/Python.framework/Versions/2.7/lib/python2.7/site-packages/matplotlib/mpl-data/fonts/afm/pagk8a.afm'
p2474
aS'/usr/local/bin/homebrew/Cellar/python/2.7.6/Frameworks/Python.framework/Versions/2.7/lib/python2.7/site-packages/matplotlib/mpl-data/fonts/afm/phvb8an.afm'
p2475
aS'/usr/local/bin/homebrew/Cellar/python/2.7.6/Frameworks/Python.framework/Versions/2.7/lib/python2.7/site-packages/matplotlib/mpl-data/fonts/afm/ptmr8a.afm'
p2476
aS'/usr/local/bin/homebrew/Cellar/python/2.7.6/Frameworks/Python.framework/Versions/2.7/lib/python2.7/site-packages/matplotlib/mpl-data/fonts/afm/cmex10.afm'
p2477
aS'/usr/local/bin/homebrew/Cellar/python/2.7.6/Frameworks/Python.framework/Versions/2.7/lib/python2.7/site-packages/matplotlib/mpl-data/fonts/pdfcorefonts/Courier-Oblique.afm'
p2478
aS'/usr/local/bin/homebrew/Cellar/python/2.7.6/Frameworks/Python.framework/Versions/2.7/lib/python2.7/site-packages/matplotlib/mpl-data/fonts/afm/phvb8a.afm'
p2479
aS'/usr/X11/lib/X11/fonts/Type1/UTB_____.afm'
p2480
aS'/usr/X11/lib/X11/fonts/Type1/c0583bt_.afm'
p2481
aS'/usr/X11/lib/X11/fonts/Type1/l049036t.afm'
p2482
aS'/usr/X11/lib/X11/fonts/Type1/c0649bt_.afm'
p2483
aS'/usr/X11/lib/X11/fonts/Type1/UTRG____.afm'
p2484
aS'/usr/X11/lib/X11/fonts/Type1/c0582bt_.afm'
p2485
aS'/usr/X11/lib/X11/fonts/Type1/c0648bt_.afm'
p2486
aS'/usr/X11/lib/X11/fonts/Type1/c0633bt_.afm'
p2487
aS'/usr/X11/lib/X11/fonts/Type1/l048013t.afm'
p2488
aS'/usr/X11/lib/X11/fonts/Type1/courb.afm'
p2489
aS'/usr/X11/lib/X11/fonts/Type1/c0419bt_.afm'
p2490
aS'/usr/X11/lib/X11/fonts/Type1/UTI_____.afm'
p2491
aS'/usr/X11/lib/X11/fonts/Type1/l049016t.afm'
p2492
aS'/usr/X11/lib/X11/fonts/Type1/l048033t.afm'
p2493
aS'/usr/X11/lib/X11/fonts/Type1/l048016t.afm'
p2494
aS'/usr/X11/lib/X11/fonts/Type1/l048036t.afm'
p2495
aS'/usr/X11/lib/X11/fonts/Type1/courbi.afm'
p2496
aS'/usr/X11/lib/X11/fonts/Type1/c0632bt_.afm'
p2497
aS'/usr/X11/lib/X11/fonts/Type1/l049013t.afm'
p2498
aS'/usr/X11/lib/X11/fonts/Type1/c0611bt_.afm'
p2499
aS'/usr/X11/lib/X11/fonts/Type1/l047036t.afm'
p2500
aS'/usr/X11/lib/X11/fonts/Type1/l047016t.afm'
p2501
aS'/usr/X11/lib/X11/fonts/Type1/l047033t.afm'
p2502
aS'/usr/X11/lib/X11/fonts/Type1/l047013t.afm'
p2503
aS'/usr/X11/lib/X11/fonts/Type1/l049033t.afm'
p2504
aS'/usr/X11/lib/X11/fonts/Type1/UTBI____.afm'
p2505
aS'/usr/X11/lib/X11/fonts/Type1/cour.afm'
p2506
aS'/usr/X11/lib/X11/fonts/Type1/couri.afm'
p2507
asS'afmlist'
p2508
(lp2509
g7
(g8
g9
NtRp2510
(dp2511
g12
g13
sg14
S'Computer Modern'
p2512
sg16
I500
sg17
g13
sg18
g13
sg19
g2418
sg21
g22
sbag7
(g8
g9
NtRp2513
(dp2514
g12
g94
sg14
S'Times'
p2515
sg16
I500
sg17
g13
sg18
g13
sg19
g2421
sg21
g22
sbag7
(g8
g9
NtRp2516
(dp2517
g12
g13
sg14
S'Times'
p2518
sg16
I500
sg17
g13
sg18
g13
sg19
g2422
sg21
g22
sbag7
(g8
g9
NtRp2519
(dp2520
g12
g94
sg14
S'Helvetica'
p2521
sg16
I700
sg17
g13
sg18
g13
sg19
g2423
sg21
g22
sbag7
(g8
g9
NtRp2522
(dp2523
g12
g13
sg14
S'Palatino'
p2524
sg16
I500
sg17
g13
sg18
g13
sg19
g2424
sg21
g22
sbag7
(g8
g9
NtRp2525
(dp2526
g12
g94
sg14
S'Helvetica'
p2527
sg16
I700
sg17
g168
sg18
g13
sg19
g2425
sg21
g22
sbag7
(g8
g9
NtRp2528
(dp2529
g12
g94
sg14
S'Courier'
p2530
sg16
I700
sg17
g13
sg18
g13
sg19
g2426
sg21
g22
sbag7
(g8
g9
NtRp2531
(dp2532
g12
g13
sg14
S'Courier'
p2533
sg16
I500
sg17
g13
sg18
g13
sg19
g2427
sg21
g22
sbag7
(g8
g9
NtRp2534
(dp2535
g12
g94
sg14
S'Helvetica'
p2536
sg16
I700
sg17
g13
sg18
g13
sg19
g2428
sg21
g22
sbag7
(g8
g9
NtRp2537
(dp2538
g12
g94
sg14
S'Utopia'
p2539
sg16
I700
sg17
g13
sg18
g13
sg19
g2429
sg21
g22
sbag7
(g8
g9
NtRp2540
(dp2541
g12
g13
sg14
S'ZapfDingbats'
p2542
sg16
I500
sg17
g13
sg18
g13
sg19
g2430
sg21
g22
sbag7
(g8
g9
NtRp2543
(dp2544
g12
g94
sg14
S'Courier'
p2545
sg16
I700
sg17
g13
sg18
g13
sg19
g2431
sg21
g22
sbag7
(g8
g9
NtRp2546
(dp2547
g12
g94
sg14
S'New Century Schoolbook'
p2548
sg16
I500
sg17
g13
sg18
g13
sg19
g2432
sg21
g22
sbag7
(g8
g9
NtRp2549
(dp2550
g12
g94
sg14
S'Helvetica'
p2551
sg16
I500
sg17
g168
sg18
g13
sg19
g2433
sg21
g22
sbag7
(g8
g9
NtRp2552
(dp2553
g12
g13
sg14
S'ITC Bookman'
p2554
sg16
I200
sg17
g13
sg18
g13
sg19
g2434
sg21
g22
sbag7
(g8
g9
NtRp2555
(dp2556
g12
g94
sg14
S'ITC Avant Garde Gothic'
p2557
sg16
I600
sg17
g13
sg18
g13
sg19
g2435
sg21
g22
sbag7
(g8
g9
NtRp2558
(dp2559
g12
g94
sg14
S'Computer Modern'
p2560
sg16
I500
sg17
g13
sg18
g13
sg19
g2436
sg21
g22
sbag7
(g8
g9
NtRp2561
(dp2562
g12
g94
sg14
S'Palatino'
p2563
sg16
I500
sg17
g13
sg18
g13
sg19
g2437
sg21
g22
sbag7
(g8
g9
NtRp2564
(dp2565
g12
g13
sg14
S'New Century Schoolbook'
p2566
sg16
I700
sg17
g13
sg18
g13
sg19
g2438
sg21
g22
sbag7
(g8
g9
NtRp2567
(dp2568
g12
g94
sg14
S'Times'
p2569
sg16
I500
sg17
g13
sg18
g13
sg19
g2439
sg21
g22
sbag7
(g8
g9
NtRp2570
(dp2571
g12
g13
sg14
S'Helvetica'
p2572
sg16
I200
sg17
g13
sg18
g13
sg19
g2440
sg21
g22
sbag7
(g8
g9
NtRp2573
(dp2574
g12
g94
sg14
S'ITC Bookman'
p2575
sg16
I600
sg17
g13
sg18
g13
sg19
g2441
sg21
g22
sbag7
(g8
g9
NtRp2576
(dp2577
g12
g94
sg14
S'Helvetica'
p2578
sg16
I200
sg17
g13
sg18
g13
sg19
g2442
sg21
g22
sbag7
(g8
g9
NtRp2579
(dp2580
g12
g94
sg14
S'ITC Zapf Chancery'
p2581
sg16
I500
sg17
g13
sg18
g13
sg19
g2443
sg21
g22
sbag7
(g8
g9
NtRp2582
(dp2583
g12
g94
sg14
S'Courier'
p2584
sg16
I500
sg17
g13
sg18
g13
sg19
g2444
sg21
g22
sbag7
(g8
g9
NtRp2585
(dp2586
g12
g94
sg14
S'Computer Modern'
p2587
sg16
I500
sg17
g13
sg18
g13
sg19
g2445
sg21
g22
sbag7
(g8
g9
NtRp2588
(dp2589
g12
g94
sg14
S'Helvetica'
p2590
sg16
I500
sg17
g13
sg18
g13
sg19
g2446
sg21
g22
sbag7
(g8
g9
NtRp2591
(dp2592
g12
g13
sg14
S'Helvetica'
p2593
sg16
I500
sg17
g13
sg18
g13
sg19
g2447
sg21
g22
sbag7
(g8
g9
NtRp2594
(dp2595
g12
g13
sg14
S'Times'
p2596
sg16
I700
sg17
g13
sg18
g13
sg19
g2448
sg21
g22
sbag7
(g8
g9
NtRp2597
(dp2598
g12
g13
sg14
S'Courier'
p2599
sg16
I500
sg17
g13
sg18
g13
sg19
g2449
sg21
g22
sbag7
(g8
g9
NtRp2600
(dp2601
g12
g13
sg14
S'Symbol'
p2602
sg16
I500
sg17
g13
sg18
g13
sg19
g2450
sg21
g22
sbag7
(g8
g9
NtRp2603
(dp2604
g12
g13
sg14
S'Utopia'
p2605
sg16
I400
sg17
g13
sg18
g13
sg19
g2451
sg21
g22
sbag7
(g8
g9
NtRp2606
(dp2607
g12
g94
sg14
S'ITC Avant Garde Gothic'
p2608
sg16
I400
sg17
g13
sg18
g13
sg19
g2452
sg21
g22
sbag7
(g8
g9
NtRp2609
(dp2610
g12
g13
sg14
S'ITC Zapf Dingbats'
p2611
sg16
I500
sg17
g13
sg18
g13
sg19
g2453
sg21
g22
sbag7
(g8
g9
NtRp2612
(dp2613
g12
g13
sg14
S'Helvetica'
p2614
sg16
I500
sg17
g13
sg18
g13
sg19
g2454
sg21
g22
sbag7
(g8
g9
NtRp2615
(dp2616
g12
g13
sg14
S'ITC Bookman'
p2617
sg16
I600
sg17
g13
sg18
g13
sg19
g2455
sg21
g22
sbag7
(g8
g9
NtRp2618
(dp2619
g12
g94
sg14
S'Palatino'
p2620
sg16
I700
sg17
g13
sg18
g13
sg19
g2456
sg21
g22
sbag7
(g8
g9
NtRp2621
(dp2622
g12
g94
sg14
S'New Century Schoolbook'
p2623
sg16
I700
sg17
g13
sg18
g13
sg19
g2457
sg21
g22
sbag7
(g8
g9
NtRp2624
(dp2625
g12
g13
sg14
S'Palatino'
p2626
sg16
I700
sg17
g13
sg18
g13
sg19
g2458
sg21
g22
sbag7
(g8
g9
NtRp2627
(dp2628
g12
g13
sg14
S'Helvetica'
p2629
sg16
I500
sg17
g168
sg18
g13
sg19
g2459
sg21
g22
sbag7
(g8
g9
NtRp2630
(dp2631
g12
g94
sg14
S'Times'
p2632
sg16
I700
sg17
g13
sg18
g13
sg19
g2460
sg21
g22
sbag7
(g8
g9
NtRp2633
(dp2634
g12
g13
sg14
S'Helvetica'
p2635
sg16
I700
sg17
g13
sg18
g13
sg19
g2461
sg21
g22
sbag7
(g8
g9
NtRp2636
(dp2637
g12
g94
sg14
S'Helvetica'
p2638
sg16
I500
sg17
g13
sg18
g13
sg19
g2462
sg21
g22
sbag7
(g8
g9
NtRp2639
(dp2640
g12
g13
sg14
S'Courier'
p2641
sg16
I700
sg17
g13
sg18
g13
sg19
g2463
sg21
g22
sbag7
(g8
g9
NtRp2642
(dp2643
g12
g13
sg14
S'ITC Avant Garde Gothic'
p2644
sg16
I600
sg17
g13
sg18
g13
sg19
g2464
sg21
g22
sbag7
(g8
g9
NtRp2645
(dp2646
g12
g13
sg14
S'Times'
p2647
sg16
I700
sg17
g13
sg18
g13
sg19
g2465
sg21
g22
sbag7
(g8
g9
NtRp2648
(dp2649
g12
g13
sg14
S'Symbol'
p2650
sg16
I500
sg17
g13
sg18
g13
sg19
g2466
sg21
g22
sbag7
(g8
g9
NtRp2651
(dp2652
g12
g13
sg14
S'Computer Modern'
p2653
sg16
I500
sg17
g13
sg18
g13
sg19
g2467
sg21
g22
sbag7
(g8
g9
NtRp2654
(dp2655
g12
g94
sg14
S'Utopia'
p2656
sg16
I400
sg17
g13
sg18
g13
sg19
g2468
sg21
g22
sbag7
(g8
g9
NtRp2657
(dp2658
g12
g94
sg14
S'Times'
p2659
sg16
I700
sg17
g13
sg18
g13
sg19
g2469
sg21
g22
sbag7
(g8
g9
NtRp2660
(dp2661
g12
g13
sg14
S'Courier'
p2662
sg16
I700
sg17
g13
sg18
g13
sg19
g2470
sg21
g22
sbag7
(g8
g9
NtRp2663
(dp2664
g12
g13
sg14
S'Utopia'
p2665
sg16
I700
sg17
g13
sg18
g13
sg19
g2471
sg21
g22
sbag7
(g8
g9
NtRp2666
(dp2667
g12
g94
sg14
S'ITC Bookman'
p2668
sg16
I200
sg17
g13
sg18
g13
sg19
g2472
sg21
g22
sbag7
(g8
g9
NtRp2669
(dp2670
g12
g13
sg14
S'New Century Schoolbook'
p2671
sg16
I500
sg17
g13
sg18
g13
sg19
g2473
sg21
g22
sbag7
(g8
g9
NtRp2672
(dp2673
g12
g13
sg14
S'ITC Avant Garde Gothic'
p2674
sg16
I400
sg17
g13
sg18
g13
sg19
g2474
sg21
g22
sbag7
(g8
g9
NtRp2675
(dp2676
g12
g13
sg14
S'Helvetica'
p2677
sg16
I700
sg17
g168
sg18
g13
sg19
g2475
sg21
g22
sbag7
(g8
g9
NtRp2678
(dp2679
g12
g13
sg14
S'Times'
p2680
sg16
I500
sg17
g13
sg18
g13
sg19
g2476
sg21
g22
sbag7
(g8
g9
NtRp2681
(dp2682
g12
g13
sg14
S'Computer Modern'
p2683
sg16
I500
sg17
g13
sg18
g13
sg19
g2477
sg21
g22
sbag7
(g8
g9
NtRp2684
(dp2685
g12
g94
sg14
S'Courier'
p2686
sg16
I500
sg17
g13
sg18
g13
sg19
g2478
sg21
g22
sbag7
(g8
g9
NtRp2687
(dp2688
g12
g13
sg14
S'Helvetica'
p2689
sg16
I700
sg17
g13
sg18
g13
sg19
g2479
sg21
g22
sbag7
(g8
g9
NtRp2690
(dp2691
g12
g13
sg14
S'Utopia'
p2692
sg16
I700
sg17
g13
sg18
g13
sg19
g2480
sg21
g22
sbag7
(g8
g9
NtRp2693
(dp2694
g12
g13
sg14
S'Courier 10 Pitch'
p2695
sg16
I700
sg17
g13
sg18
g13
sg19
g2481
sg21
g22
sbag7
(g8
g9
NtRp2696
(dp2697
g12
g94
sg14
S'Luxi Serif'
p2698
sg16
I700
sg17
g13
sg18
g13
sg19
g2482
sg21
g22
sbag7
(g8
g9
NtRp2699
(dp2700
g12
g94
sg14
S'Bitstream Charter'
p2701
sg16
I400
sg17
g13
sg18
g13
sg19
g2483
sg21
g22
sbag7
(g8
g9
NtRp2702
(dp2703
g12
g13
sg14
S'Utopia'
p2704
sg16
I400
sg17
g13
sg18
g13
sg19
g2484
sg21
g22
sbag7
(g8
g9
NtRp2705
(dp2706
g12
g94
sg14
S'Courier 10 Pitch'
p2707
sg16
I400
sg17
g13
sg18
g13
sg19
g2485
sg21
g22
sbag7
(g8
g9
NtRp2708
(dp2709
g12
g13
sg14
S'Bitstream Charter'
p2710
sg16
I400
sg17
g13
sg18
g13
sg19
g2486
sg21
g22
sbag7
(g8
g9
NtRp2711
(dp2712
g12
g94
sg14
S'Bitstream Charter'
p2713
sg16
I700
sg17
g13
sg18
g13
sg19
g2487
sg21
g22
sbag7
(g8
g9
NtRp2714
(dp2715
g12
g13
sg14
S'Luxi Sans'
p2716
sg16
I400
sg17
g13
sg18
g13
sg19
g2488
sg21
g22
sbag7
(g8
g9
NtRp2717
(dp2718
g12
g13
sg14
S'Courier'
p2719
sg16
I700
sg17
g13
sg18
g13
sg19
g2489
sg21
g22
sbag7
(g8
g9
NtRp2720
(dp2721
g12
g13
sg14
S'Courier 10 Pitch'
p2722
sg16
I400
sg17
g13
sg18
g13
sg19
g2490
sg21
g22
sbag7
(g8
g9
NtRp2723
(dp2724
g12
g94
sg14
S'Utopia'
p2725
sg16
I400
sg17
g13
sg18
g13
sg19
g2491
sg21
g22
sbag7
(g8
g9
NtRp2726
(dp2727
g12
g13
sg14
S'Luxi Serif'
p2728
sg16
I700
sg17
g13
sg18
g13
sg19
g2492
sg21
g22
sbag7
(g8
g9
NtRp2729
(dp2730
g12
g94
sg14
S'Luxi Sans'
p2731
sg16
I400
sg17
g13
sg18
g13
sg19
g2493
sg21
g22
sbag7
(g8
g9
NtRp2732
(dp2733
g12
g13
sg14
S'Luxi Sans'
p2734
sg16
I700
sg17
g13
sg18
g13
sg19
g2494
sg21
g22
sbag7
(g8
g9
NtRp2735
(dp2736
g12
g94
sg14
S'Luxi Sans'
p2737
sg16
I700
sg17
g13
sg18
g13
sg19
g2495
sg21
g22
sbag7
(g8
g9
NtRp2738
(dp2739
g12
g94
sg14
S'Courier'
p2740
sg16
I700
sg17
g13
sg18
g13
sg19
g2496
sg21
g22
sbag7
(g8
g9
NtRp2741
(dp2742
g12
g13
sg14
S'Bitstream Charter'
p2743
sg16
I700
sg17
g13
sg18
g13
sg19
g2497
sg21
g22
sbag7
(g8
g9
NtRp2744
(dp2745
g12
g13
sg14
S'Luxi Serif'
p2746
sg16
I400
sg17
g13
sg18
g13
sg19
g2498
sg21
g22
sbag7
(g8
g9
NtRp2747
(dp2748
g12
g94
sg14
S'Courier 10 Pitch'
p2749
sg16
I700
sg17
g13
sg18
g13
sg19
g2499
sg21
g22
sbag7
(g8
g9
NtRp2750
(dp2751
g12
g94
sg14
S'Luxi Mono'
p2752
sg16
I700
sg17
g13
sg18
g13
sg19
g2500
sg21
g22
sbag7
(g8
g9
NtRp2753
(dp2754
g12
g13
sg14
S'Luxi Mono'
p2755
sg16
I700
sg17
g13
sg18
g13
sg19
g2501
sg21
g22
sbag7
(g8
g9
NtRp2756
(dp2757
g12
g94
sg14
S'Luxi Mono'
p2758
sg16
I400
sg17
g13
sg18
g13
sg19
g2502
sg21
g22
sbag7
(g8
g9
NtRp2759
(dp2760
g12
g13
sg14
S'Luxi Mono'
p2761
sg16
I400
sg17
g13
sg18
g13
sg19
g2503
sg21
g22
sbag7
(g8
g9
NtRp2762
(dp2763
g12
g94
sg14
S'Luxi Serif'
p2764
sg16
I400
sg17
g13
sg18
g13
sg19
g2504
sg21
g22
sbag7
(g8
g9
NtRp2765
(dp2766
g12
g94
sg14
S'Utopia'
p2767
sg16
I700
sg17
g13
sg18
g13
sg19
g2505
sg21
g22
sbag7
(g8
g9
NtRp2768
(dp2769
g12
g13
sg14
S'Courier'
p2770
sg16
I400
sg17
g13
sg18
g13
sg19
g2506
sg21
g22
sbag7
(g8
g9
NtRp2771
(dp2772
g12
g94
sg14
S'Courier'
p2773
sg16
I400
sg17
g13
sg18
g13
sg19
g2507
sg21
g22
sbasb.